
fingerprintlock.elf:     file format elf32-avr

Sections:
Idx Name          Size      VMA       LMA       File off  Algn
  0 .text         0000112c  00000000  00000000  00000094  2**1
                  CONTENTS, ALLOC, LOAD, READONLY, CODE
  1 .data         000000fa  00802000  0000112c  000011c0  2**0
                  CONTENTS, ALLOC, LOAD, DATA
  2 .bss          0000022d  008020fa  008020fa  000012ba  2**0
                  ALLOC
  3 .comment      00000030  00000000  00000000  000012ba  2**0
                  CONTENTS, READONLY
  4 .debug_aranges 000001e0  00000000  00000000  000012ea  2**0
                  CONTENTS, READONLY, DEBUGGING
  5 .debug_info   0000362a  00000000  00000000  000014ca  2**0
                  CONTENTS, READONLY, DEBUGGING
  6 .debug_abbrev 00000de8  00000000  00000000  00004af4  2**0
                  CONTENTS, READONLY, DEBUGGING
  7 .debug_line   00001d15  00000000  00000000  000058dc  2**0
                  CONTENTS, READONLY, DEBUGGING
  8 .debug_frame  000005fc  00000000  00000000  000075f4  2**2
                  CONTENTS, READONLY, DEBUGGING
  9 .debug_str    00000c61  00000000  00000000  00007bf0  2**0
                  CONTENTS, READONLY, DEBUGGING
 10 .debug_loc    00002e38  00000000  00000000  00008851  2**0
                  CONTENTS, READONLY, DEBUGGING
 11 .debug_ranges 000001e0  00000000  00000000  0000b689  2**0
                  CONTENTS, READONLY, DEBUGGING

Disassembly of section .text:

00000000 <__vectors>:
       0:	3c c2       	rjmp	.+1144   	; 0x47a <__ctors_end>
       2:	00 00       	nop
       4:	59 c2       	rjmp	.+1202   	; 0x4b8 <__bad_interrupt>
       6:	00 00       	nop
       8:	57 c2       	rjmp	.+1198   	; 0x4b8 <__bad_interrupt>
       a:	00 00       	nop
       c:	55 c2       	rjmp	.+1194   	; 0x4b8 <__bad_interrupt>
       e:	00 00       	nop
      10:	53 c2       	rjmp	.+1190   	; 0x4b8 <__bad_interrupt>
      12:	00 00       	nop
      14:	51 c2       	rjmp	.+1186   	; 0x4b8 <__bad_interrupt>
      16:	00 00       	nop
      18:	4f c2       	rjmp	.+1182   	; 0x4b8 <__bad_interrupt>
      1a:	00 00       	nop
      1c:	4d c2       	rjmp	.+1178   	; 0x4b8 <__bad_interrupt>
      1e:	00 00       	nop
      20:	4b c2       	rjmp	.+1174   	; 0x4b8 <__bad_interrupt>
      22:	00 00       	nop
      24:	49 c2       	rjmp	.+1170   	; 0x4b8 <__bad_interrupt>
      26:	00 00       	nop
      28:	47 c2       	rjmp	.+1166   	; 0x4b8 <__bad_interrupt>
      2a:	00 00       	nop
      2c:	45 c2       	rjmp	.+1162   	; 0x4b8 <__bad_interrupt>
      2e:	00 00       	nop
      30:	43 c2       	rjmp	.+1158   	; 0x4b8 <__bad_interrupt>
      32:	00 00       	nop
      34:	41 c2       	rjmp	.+1154   	; 0x4b8 <__bad_interrupt>
      36:	00 00       	nop
      38:	3f c2       	rjmp	.+1150   	; 0x4b8 <__bad_interrupt>
      3a:	00 00       	nop
      3c:	3d c2       	rjmp	.+1146   	; 0x4b8 <__bad_interrupt>
      3e:	00 00       	nop
      40:	3b c2       	rjmp	.+1142   	; 0x4b8 <__bad_interrupt>
      42:	00 00       	nop
      44:	39 c2       	rjmp	.+1138   	; 0x4b8 <__bad_interrupt>
      46:	00 00       	nop
      48:	37 c2       	rjmp	.+1134   	; 0x4b8 <__bad_interrupt>
      4a:	00 00       	nop
      4c:	35 c2       	rjmp	.+1130   	; 0x4b8 <__bad_interrupt>
      4e:	00 00       	nop
      50:	33 c2       	rjmp	.+1126   	; 0x4b8 <__bad_interrupt>
      52:	00 00       	nop
      54:	31 c2       	rjmp	.+1122   	; 0x4b8 <__bad_interrupt>
      56:	00 00       	nop
      58:	2f c2       	rjmp	.+1118   	; 0x4b8 <__bad_interrupt>
      5a:	00 00       	nop
      5c:	2d c2       	rjmp	.+1114   	; 0x4b8 <__bad_interrupt>
      5e:	00 00       	nop
      60:	2b c2       	rjmp	.+1110   	; 0x4b8 <__bad_interrupt>
      62:	00 00       	nop
      64:	29 c2       	rjmp	.+1106   	; 0x4b8 <__bad_interrupt>
      66:	00 00       	nop
      68:	27 c2       	rjmp	.+1102   	; 0x4b8 <__bad_interrupt>
      6a:	00 00       	nop
      6c:	25 c2       	rjmp	.+1098   	; 0x4b8 <__bad_interrupt>
      6e:	00 00       	nop
      70:	23 c2       	rjmp	.+1094   	; 0x4b8 <__bad_interrupt>
      72:	00 00       	nop
      74:	21 c2       	rjmp	.+1090   	; 0x4b8 <__bad_interrupt>
      76:	00 00       	nop
      78:	1f c2       	rjmp	.+1086   	; 0x4b8 <__bad_interrupt>
      7a:	00 00       	nop
      7c:	1d c2       	rjmp	.+1082   	; 0x4b8 <__bad_interrupt>
      7e:	00 00       	nop
      80:	1b c2       	rjmp	.+1078   	; 0x4b8 <__bad_interrupt>
      82:	00 00       	nop
      84:	19 c2       	rjmp	.+1074   	; 0x4b8 <__bad_interrupt>
      86:	00 00       	nop
      88:	17 c2       	rjmp	.+1070   	; 0x4b8 <__bad_interrupt>
      8a:	00 00       	nop
      8c:	15 c2       	rjmp	.+1066   	; 0x4b8 <__bad_interrupt>
      8e:	00 00       	nop
      90:	13 c2       	rjmp	.+1062   	; 0x4b8 <__bad_interrupt>
      92:	00 00       	nop
      94:	11 c2       	rjmp	.+1058   	; 0x4b8 <__bad_interrupt>
      96:	00 00       	nop
      98:	0f c2       	rjmp	.+1054   	; 0x4b8 <__bad_interrupt>
      9a:	00 00       	nop
      9c:	0d c2       	rjmp	.+1050   	; 0x4b8 <__bad_interrupt>
      9e:	00 00       	nop
      a0:	0b c2       	rjmp	.+1046   	; 0x4b8 <__bad_interrupt>
      a2:	00 00       	nop
      a4:	09 c2       	rjmp	.+1042   	; 0x4b8 <__bad_interrupt>
      a6:	00 00       	nop
      a8:	07 c2       	rjmp	.+1038   	; 0x4b8 <__bad_interrupt>
      aa:	00 00       	nop
      ac:	05 c2       	rjmp	.+1034   	; 0x4b8 <__bad_interrupt>
      ae:	00 00       	nop
      b0:	03 c2       	rjmp	.+1030   	; 0x4b8 <__bad_interrupt>
      b2:	00 00       	nop
      b4:	01 c2       	rjmp	.+1026   	; 0x4b8 <__bad_interrupt>
      b6:	00 00       	nop
      b8:	ff c1       	rjmp	.+1022   	; 0x4b8 <__bad_interrupt>
      ba:	00 00       	nop
      bc:	fd c1       	rjmp	.+1018   	; 0x4b8 <__bad_interrupt>
      be:	00 00       	nop
      c0:	fb c1       	rjmp	.+1014   	; 0x4b8 <__bad_interrupt>
      c2:	00 00       	nop
      c4:	f9 c1       	rjmp	.+1010   	; 0x4b8 <__bad_interrupt>
      c6:	00 00       	nop
      c8:	f7 c1       	rjmp	.+1006   	; 0x4b8 <__bad_interrupt>
      ca:	00 00       	nop
      cc:	f5 c1       	rjmp	.+1002   	; 0x4b8 <__bad_interrupt>
      ce:	00 00       	nop
      d0:	f3 c1       	rjmp	.+998    	; 0x4b8 <__bad_interrupt>
      d2:	00 00       	nop
      d4:	f1 c1       	rjmp	.+994    	; 0x4b8 <__bad_interrupt>
      d6:	00 00       	nop
      d8:	ef c1       	rjmp	.+990    	; 0x4b8 <__bad_interrupt>
      da:	00 00       	nop
      dc:	ed c1       	rjmp	.+986    	; 0x4b8 <__bad_interrupt>
      de:	00 00       	nop
      e0:	eb c1       	rjmp	.+982    	; 0x4b8 <__bad_interrupt>
      e2:	00 00       	nop
      e4:	e9 c1       	rjmp	.+978    	; 0x4b8 <__bad_interrupt>
      e6:	00 00       	nop
      e8:	e7 c1       	rjmp	.+974    	; 0x4b8 <__bad_interrupt>
      ea:	00 00       	nop
      ec:	e5 c1       	rjmp	.+970    	; 0x4b8 <__bad_interrupt>
      ee:	00 00       	nop
      f0:	e3 c1       	rjmp	.+966    	; 0x4b8 <__bad_interrupt>
      f2:	00 00       	nop
      f4:	e1 c1       	rjmp	.+962    	; 0x4b8 <__bad_interrupt>
      f6:	00 00       	nop
      f8:	df c1       	rjmp	.+958    	; 0x4b8 <__bad_interrupt>
      fa:	00 00       	nop
      fc:	dd c1       	rjmp	.+954    	; 0x4b8 <__bad_interrupt>
      fe:	00 00       	nop
     100:	db c1       	rjmp	.+950    	; 0x4b8 <__bad_interrupt>
     102:	00 00       	nop
     104:	d9 c1       	rjmp	.+946    	; 0x4b8 <__bad_interrupt>
     106:	00 00       	nop
     108:	d7 c1       	rjmp	.+942    	; 0x4b8 <__bad_interrupt>
     10a:	00 00       	nop
     10c:	d5 c1       	rjmp	.+938    	; 0x4b8 <__bad_interrupt>
     10e:	00 00       	nop
     110:	d3 c1       	rjmp	.+934    	; 0x4b8 <__bad_interrupt>
     112:	00 00       	nop
     114:	d1 c1       	rjmp	.+930    	; 0x4b8 <__bad_interrupt>
     116:	00 00       	nop
     118:	cf c1       	rjmp	.+926    	; 0x4b8 <__bad_interrupt>
     11a:	00 00       	nop
     11c:	cd c1       	rjmp	.+922    	; 0x4b8 <__bad_interrupt>
     11e:	00 00       	nop
     120:	cb c1       	rjmp	.+918    	; 0x4b8 <__bad_interrupt>
     122:	00 00       	nop
     124:	c9 c1       	rjmp	.+914    	; 0x4b8 <__bad_interrupt>
     126:	00 00       	nop
     128:	c7 c1       	rjmp	.+910    	; 0x4b8 <__bad_interrupt>
     12a:	00 00       	nop
     12c:	c5 c1       	rjmp	.+906    	; 0x4b8 <__bad_interrupt>
     12e:	00 00       	nop
     130:	c3 c1       	rjmp	.+902    	; 0x4b8 <__bad_interrupt>
     132:	00 00       	nop
     134:	c1 c1       	rjmp	.+898    	; 0x4b8 <__bad_interrupt>
     136:	00 00       	nop
     138:	bf c1       	rjmp	.+894    	; 0x4b8 <__bad_interrupt>
     13a:	00 00       	nop
     13c:	bd c1       	rjmp	.+890    	; 0x4b8 <__bad_interrupt>
     13e:	00 00       	nop
     140:	bb c1       	rjmp	.+886    	; 0x4b8 <__bad_interrupt>
     142:	00 00       	nop
     144:	b9 c1       	rjmp	.+882    	; 0x4b8 <__bad_interrupt>
     146:	00 00       	nop
     148:	b7 c1       	rjmp	.+878    	; 0x4b8 <__bad_interrupt>
     14a:	00 00       	nop
     14c:	b5 c1       	rjmp	.+874    	; 0x4b8 <__bad_interrupt>
     14e:	00 00       	nop
     150:	b3 c1       	rjmp	.+870    	; 0x4b8 <__bad_interrupt>
     152:	00 00       	nop
     154:	b1 c1       	rjmp	.+866    	; 0x4b8 <__bad_interrupt>
     156:	00 00       	nop
     158:	af c1       	rjmp	.+862    	; 0x4b8 <__bad_interrupt>
     15a:	00 00       	nop
     15c:	ad c1       	rjmp	.+858    	; 0x4b8 <__bad_interrupt>
     15e:	00 00       	nop
     160:	ab c1       	rjmp	.+854    	; 0x4b8 <__bad_interrupt>
     162:	00 00       	nop
     164:	a9 c1       	rjmp	.+850    	; 0x4b8 <__bad_interrupt>
     166:	00 00       	nop
     168:	a7 c1       	rjmp	.+846    	; 0x4b8 <__bad_interrupt>
     16a:	00 00       	nop
     16c:	a5 c1       	rjmp	.+842    	; 0x4b8 <__bad_interrupt>
     16e:	00 00       	nop
     170:	a3 c1       	rjmp	.+838    	; 0x4b8 <__bad_interrupt>
     172:	00 00       	nop
     174:	a1 c1       	rjmp	.+834    	; 0x4b8 <__bad_interrupt>
     176:	00 00       	nop
     178:	9f c1       	rjmp	.+830    	; 0x4b8 <__bad_interrupt>
     17a:	00 00       	nop
     17c:	9d c1       	rjmp	.+826    	; 0x4b8 <__bad_interrupt>
     17e:	00 00       	nop
     180:	9b c1       	rjmp	.+822    	; 0x4b8 <__bad_interrupt>
     182:	00 00       	nop
     184:	99 c1       	rjmp	.+818    	; 0x4b8 <__bad_interrupt>
     186:	00 00       	nop
     188:	97 c1       	rjmp	.+814    	; 0x4b8 <__bad_interrupt>
     18a:	00 00       	nop
     18c:	95 c1       	rjmp	.+810    	; 0x4b8 <__bad_interrupt>
     18e:	00 00       	nop
     190:	93 c1       	rjmp	.+806    	; 0x4b8 <__bad_interrupt>
     192:	00 00       	nop
     194:	91 c1       	rjmp	.+802    	; 0x4b8 <__bad_interrupt>
     196:	00 00       	nop
     198:	8f c1       	rjmp	.+798    	; 0x4b8 <__bad_interrupt>
     19a:	00 00       	nop
     19c:	8d c1       	rjmp	.+794    	; 0x4b8 <__bad_interrupt>
     19e:	00 00       	nop
     1a0:	8b c1       	rjmp	.+790    	; 0x4b8 <__bad_interrupt>
     1a2:	00 00       	nop
     1a4:	89 c1       	rjmp	.+786    	; 0x4b8 <__bad_interrupt>
     1a6:	00 00       	nop
     1a8:	87 c1       	rjmp	.+782    	; 0x4b8 <__bad_interrupt>
     1aa:	00 00       	nop
     1ac:	85 c1       	rjmp	.+778    	; 0x4b8 <__bad_interrupt>
     1ae:	00 00       	nop
     1b0:	83 c1       	rjmp	.+774    	; 0x4b8 <__bad_interrupt>
     1b2:	00 00       	nop
     1b4:	81 c1       	rjmp	.+770    	; 0x4b8 <__bad_interrupt>
     1b6:	00 00       	nop
     1b8:	7f c1       	rjmp	.+766    	; 0x4b8 <__bad_interrupt>
     1ba:	00 00       	nop
     1bc:	7d c1       	rjmp	.+762    	; 0x4b8 <__bad_interrupt>
     1be:	00 00       	nop
     1c0:	7b c1       	rjmp	.+758    	; 0x4b8 <__bad_interrupt>
     1c2:	00 00       	nop
     1c4:	79 c1       	rjmp	.+754    	; 0x4b8 <__bad_interrupt>
     1c6:	00 00       	nop
     1c8:	77 c1       	rjmp	.+750    	; 0x4b8 <__bad_interrupt>
     1ca:	00 00       	nop
     1cc:	75 c1       	rjmp	.+746    	; 0x4b8 <__bad_interrupt>
     1ce:	00 00       	nop
     1d0:	73 c1       	rjmp	.+742    	; 0x4b8 <__bad_interrupt>
     1d2:	00 00       	nop
     1d4:	71 c1       	rjmp	.+738    	; 0x4b8 <__bad_interrupt>
     1d6:	00 00       	nop
     1d8:	6f c1       	rjmp	.+734    	; 0x4b8 <__bad_interrupt>
     1da:	00 00       	nop
     1dc:	6d c1       	rjmp	.+730    	; 0x4b8 <__bad_interrupt>
     1de:	00 00       	nop
     1e0:	6b c1       	rjmp	.+726    	; 0x4b8 <__bad_interrupt>
     1e2:	00 00       	nop
     1e4:	69 c1       	rjmp	.+722    	; 0x4b8 <__bad_interrupt>
	...

000001e8 <__trampolines_end>:
     1e8:	00 00       	nop
     1ea:	00 00       	nop
     1ec:	00 00       	nop
     1ee:	00 20       	and	r0, r0
     1f0:	20 20       	and	r2, r0
     1f2:	20 20       	and	r2, r0
     1f4:	00 20       	and	r0, r0
     1f6:	50 50       	subi	r21, 0x00	; 0
     1f8:	50 00       	.word	0x0050	; ????
     1fa:	00 00       	nop
     1fc:	00 50       	subi	r16, 0x00	; 0
     1fe:	50 f8       	bld	r5, 0
     200:	50 f8       	bld	r5, 0
     202:	50 50       	subi	r21, 0x00	; 0
     204:	20 78       	andi	r18, 0x80	; 128
     206:	a0 70       	andi	r26, 0x00	; 0
     208:	28 f0       	brcs	.+10     	; 0x214 <__trampolines_end+0x2c>
     20a:	20 c0       	rjmp	.+64     	; 0x24c <__trampolines_end+0x64>
     20c:	c8 10       	cpse	r12, r8
     20e:	20 40       	sbci	r18, 0x00	; 0
     210:	98 18       	sub	r9, r8
     212:	60 90 a0 40 	lds	r6, 0x40A0
     216:	a8 90       	.word	0x90a8	; ????
     218:	68 60       	ori	r22, 0x08	; 8
     21a:	20 40       	sbci	r18, 0x00	; 0
     21c:	00 00       	nop
     21e:	00 00       	nop
     220:	10 20       	and	r1, r0
     222:	40 40       	sbci	r20, 0x00	; 0
     224:	40 20       	and	r4, r0
     226:	10 40       	sbci	r17, 0x00	; 0
     228:	20 10       	cpse	r2, r0
     22a:	10 10       	cpse	r1, r0
     22c:	20 40       	sbci	r18, 0x00	; 0
     22e:	00 50       	subi	r16, 0x00	; 0
     230:	20 f8       	bld	r2, 0
     232:	20 50       	subi	r18, 0x00	; 0
     234:	00 00       	nop
     236:	20 20       	and	r2, r0
     238:	f8 20       	and	r15, r8
     23a:	20 00       	.word	0x0020	; ????
     23c:	00 00       	nop
     23e:	00 00       	nop
     240:	60 20       	and	r6, r0
     242:	40 00       	.word	0x0040	; ????
     244:	00 00       	nop
     246:	f8 00       	.word	0x00f8	; ????
     248:	00 00       	nop
     24a:	00 00       	nop
     24c:	00 00       	nop
     24e:	00 60       	ori	r16, 0x00	; 0
     250:	60 00       	.word	0x0060	; ????
     252:	08 10       	cpse	r0, r8
     254:	20 40       	sbci	r18, 0x00	; 0
     256:	80 00       	.word	0x0080	; ????
     258:	70 88       	ldd	r7, Z+16	; 0x10
     25a:	98 a8       	ldd	r9, Y+48	; 0x30
     25c:	c8 88       	ldd	r12, Y+16	; 0x10
     25e:	70 20       	and	r7, r0
     260:	60 20       	and	r6, r0
     262:	20 20       	and	r2, r0
     264:	20 70       	andi	r18, 0x00	; 0
     266:	70 88       	ldd	r7, Z+16	; 0x10
     268:	08 10       	cpse	r0, r8
     26a:	20 40       	sbci	r18, 0x00	; 0
     26c:	f8 f8       	.word	0xf8f8	; ????
     26e:	10 20       	and	r1, r0
     270:	10 08       	sbc	r1, r0
     272:	88 70       	andi	r24, 0x08	; 8
     274:	10 30       	cpi	r17, 0x00	; 0
     276:	50 90 f8 10 	lds	r5, 0x10F8
     27a:	10 f8       	bld	r1, 0
     27c:	80 f0       	brcs	.+32     	; 0x29e <__trampolines_end+0xb6>
     27e:	08 08       	sbc	r0, r8
     280:	88 70       	andi	r24, 0x08	; 8
     282:	30 40       	sbci	r19, 0x00	; 0
     284:	80 f0       	brcs	.+32     	; 0x2a6 <__trampolines_end+0xbe>
     286:	88 88       	ldd	r8, Y+16	; 0x10
     288:	70 f8       	bld	r7, 0
     28a:	08 10       	cpse	r0, r8
     28c:	20 40       	sbci	r18, 0x00	; 0
     28e:	40 40       	sbci	r20, 0x00	; 0
     290:	70 88       	ldd	r7, Z+16	; 0x10
     292:	88 70       	andi	r24, 0x08	; 8
     294:	88 88       	ldd	r8, Y+16	; 0x10
     296:	70 70       	andi	r23, 0x00	; 0
     298:	88 88       	ldd	r8, Y+16	; 0x10
     29a:	78 08       	sbc	r7, r8
     29c:	10 60       	ori	r17, 0x00	; 0
     29e:	00 60       	ori	r16, 0x00	; 0
     2a0:	60 00       	.word	0x0060	; ????
     2a2:	60 60       	ori	r22, 0x00	; 0
     2a4:	00 00       	nop
     2a6:	60 60       	ori	r22, 0x00	; 0
     2a8:	00 60       	ori	r16, 0x00	; 0
     2aa:	20 40       	sbci	r18, 0x00	; 0
     2ac:	08 10       	cpse	r0, r8
     2ae:	20 40       	sbci	r18, 0x00	; 0
     2b0:	20 10       	cpse	r2, r0
     2b2:	08 00       	.word	0x0008	; ????
     2b4:	00 f8       	bld	r0, 0
     2b6:	00 f8       	bld	r0, 0
     2b8:	00 00       	nop
     2ba:	80 40       	sbci	r24, 0x00	; 0
     2bc:	20 10       	cpse	r2, r0
     2be:	20 40       	sbci	r18, 0x00	; 0
     2c0:	80 70       	andi	r24, 0x00	; 0
     2c2:	88 08       	sbc	r8, r8
     2c4:	10 20       	and	r1, r0
     2c6:	00 20       	and	r0, r0
     2c8:	70 88       	ldd	r7, Z+16	; 0x10
     2ca:	08 68       	ori	r16, 0x88	; 136
     2cc:	a8 a8       	ldd	r10, Y+48	; 0x30
     2ce:	70 70       	andi	r23, 0x00	; 0
     2d0:	88 88       	ldd	r8, Y+16	; 0x10
     2d2:	88 f8       	.word	0xf888	; ????
     2d4:	88 88       	ldd	r8, Y+16	; 0x10
     2d6:	f0 88       	ldd	r15, Z+16	; 0x10
     2d8:	88 f0       	brcs	.+34     	; 0x2fc <__trampolines_end+0x114>
     2da:	88 88       	ldd	r8, Y+16	; 0x10
     2dc:	f0 70       	andi	r31, 0x00	; 0
     2de:	88 80       	ld	r8, Y
     2e0:	80 80       	ld	r8, Z
     2e2:	88 70       	andi	r24, 0x08	; 8
     2e4:	e0 90 88 88 	lds	r14, 0x8888
     2e8:	88 90       	.word	0x9088	; ????
     2ea:	e0 f8       	bld	r14, 0
     2ec:	80 80       	ld	r8, Z
     2ee:	f0 80       	ld	r15, Z
     2f0:	80 f8       	bld	r8, 0
     2f2:	f8 80       	ld	r15, Y
     2f4:	80 e0       	ldi	r24, 0x00	; 0
     2f6:	80 80       	ld	r8, Z
     2f8:	80 70       	andi	r24, 0x00	; 0
     2fa:	88 80       	ld	r8, Y
     2fc:	80 98       	cbi	0x10, 0	; 16
     2fe:	88 70       	andi	r24, 0x08	; 8
     300:	88 88       	ldd	r8, Y+16	; 0x10
     302:	88 f8       	.word	0xf888	; ????
     304:	88 88       	ldd	r8, Y+16	; 0x10
     306:	88 70       	andi	r24, 0x08	; 8
     308:	20 20       	and	r2, r0
     30a:	20 20       	and	r2, r0
     30c:	20 70       	andi	r18, 0x00	; 0
     30e:	38 10       	cpse	r3, r8
     310:	10 10       	cpse	r1, r0
     312:	10 90 60 88 	lds	r1, 0x8860
     316:	90 a0       	ldd	r9, Z+32	; 0x20
     318:	c0 a0       	ldd	r12, Z+32	; 0x20
     31a:	90 88       	ldd	r9, Z+16	; 0x10
     31c:	80 80       	ld	r8, Z
     31e:	80 80       	ld	r8, Z
     320:	80 80       	ld	r8, Z
     322:	f8 88       	ldd	r15, Y+16	; 0x10
     324:	d8 a8       	ldd	r13, Y+48	; 0x30
     326:	88 88       	ldd	r8, Y+16	; 0x10
     328:	88 88       	ldd	r8, Y+16	; 0x10
     32a:	88 88       	ldd	r8, Y+16	; 0x10
     32c:	c8 a8       	ldd	r12, Y+48	; 0x30
     32e:	98 88       	ldd	r9, Y+16	; 0x10
     330:	88 70       	andi	r24, 0x08	; 8
     332:	88 88       	ldd	r8, Y+16	; 0x10
     334:	88 88       	ldd	r8, Y+16	; 0x10
     336:	88 70       	andi	r24, 0x08	; 8
     338:	f0 88       	ldd	r15, Z+16	; 0x10
     33a:	88 f0       	brcs	.+34     	; 0x35e <__trampolines_end+0x176>
     33c:	80 80       	ld	r8, Z
     33e:	80 70       	andi	r24, 0x00	; 0
     340:	88 88       	ldd	r8, Y+16	; 0x10
     342:	88 a8       	ldd	r8, Y+48	; 0x30
     344:	90 68       	ori	r25, 0x80	; 128
     346:	f0 88       	ldd	r15, Z+16	; 0x10
     348:	88 f0       	brcs	.+34     	; 0x36c <__trampolines_end+0x184>
     34a:	a0 90 88 78 	lds	r10, 0x7888
     34e:	80 80       	ld	r8, Z
     350:	70 08       	sbc	r7, r0
     352:	08 f0       	brcs	.+2      	; 0x356 <__trampolines_end+0x16e>
     354:	f8 20       	and	r15, r8
     356:	20 20       	and	r2, r0
     358:	20 20       	and	r2, r0
     35a:	20 88       	ldd	r2, Z+16	; 0x10
     35c:	88 88       	ldd	r8, Y+16	; 0x10
     35e:	88 88       	ldd	r8, Y+16	; 0x10
     360:	88 70       	andi	r24, 0x08	; 8
     362:	88 88       	ldd	r8, Y+16	; 0x10
     364:	88 88       	ldd	r8, Y+16	; 0x10
     366:	88 50       	subi	r24, 0x08	; 8
     368:	20 88       	ldd	r2, Z+16	; 0x10
     36a:	88 88       	ldd	r8, Y+16	; 0x10
     36c:	a8 a8       	ldd	r10, Y+48	; 0x30
     36e:	d8 88       	ldd	r13, Y+16	; 0x10
     370:	88 88       	ldd	r8, Y+16	; 0x10
     372:	50 20       	and	r5, r0
     374:	50 88       	ldd	r5, Z+16	; 0x10
     376:	88 88       	ldd	r8, Y+16	; 0x10
     378:	88 50       	subi	r24, 0x08	; 8
     37a:	20 20       	and	r2, r0
     37c:	20 20       	and	r2, r0
     37e:	f8 08       	sbc	r15, r8
     380:	10 20       	and	r1, r0
     382:	40 80       	ld	r4, Z
     384:	f8 38       	cpi	r31, 0x88	; 136
     386:	20 20       	and	r2, r0
     388:	20 20       	and	r2, r0
     38a:	20 38       	cpi	r18, 0x80	; 128
     38c:	00 80       	ld	r0, Z
     38e:	40 20       	and	r4, r0
     390:	10 08       	sbc	r1, r0
     392:	00 e0       	ldi	r16, 0x00	; 0
     394:	20 20       	and	r2, r0
     396:	20 20       	and	r2, r0
     398:	20 e0       	ldi	r18, 0x00	; 0
     39a:	20 50       	subi	r18, 0x00	; 0
     39c:	88 00       	.word	0x0088	; ????
	...
     3a6:	00 f8       	bld	r0, 0
     3a8:	40 20       	and	r4, r0
     3aa:	10 00       	.word	0x0010	; ????
     3ac:	00 00       	nop
     3ae:	00 00       	nop
     3b0:	00 70       	andi	r16, 0x00	; 0
     3b2:	08 78       	andi	r16, 0x88	; 136
     3b4:	88 78       	andi	r24, 0x88	; 136
     3b6:	80 80       	ld	r8, Z
     3b8:	b0 c8       	rjmp	.-3744   	; 0xfffff51a <__eeprom_end+0xff7ef51a>
     3ba:	88 88       	ldd	r8, Y+16	; 0x10
     3bc:	f0 00       	.word	0x00f0	; ????
     3be:	00 70       	andi	r16, 0x00	; 0
     3c0:	80 80       	ld	r8, Z
     3c2:	88 70       	andi	r24, 0x08	; 8
     3c4:	08 08       	sbc	r0, r8
     3c6:	68 98       	cbi	0x0d, 0	; 13
     3c8:	88 88       	ldd	r8, Y+16	; 0x10
     3ca:	78 00       	.word	0x0078	; ????
     3cc:	00 70       	andi	r16, 0x00	; 0
     3ce:	88 f8       	.word	0xf888	; ????
     3d0:	80 70       	andi	r24, 0x00	; 0
     3d2:	30 48       	sbci	r19, 0x80	; 128
     3d4:	40 e0       	ldi	r20, 0x00	; 0
     3d6:	40 40       	sbci	r20, 0x00	; 0
     3d8:	40 00       	.word	0x0040	; ????
     3da:	00 78       	andi	r16, 0x80	; 128
     3dc:	88 78       	andi	r24, 0x88	; 136
     3de:	08 30       	cpi	r16, 0x08	; 8
     3e0:	80 80       	ld	r8, Z
     3e2:	b0 c8       	rjmp	.-3744   	; 0xfffff544 <__eeprom_end+0xff7ef544>
     3e4:	88 88       	ldd	r8, Y+16	; 0x10
     3e6:	88 20       	and	r8, r8
     3e8:	00 60       	ori	r16, 0x00	; 0
     3ea:	20 20       	and	r2, r0
     3ec:	20 70       	andi	r18, 0x00	; 0
     3ee:	10 00       	.word	0x0010	; ????
     3f0:	30 10       	cpse	r3, r0
     3f2:	10 90 60 40 	lds	r1, 0x4060
     3f6:	40 48       	sbci	r20, 0x80	; 128
     3f8:	50 60       	ori	r21, 0x00	; 0
     3fa:	50 48       	sbci	r21, 0x80	; 128
     3fc:	60 20       	and	r6, r0
     3fe:	20 20       	and	r2, r0
     400:	20 20       	and	r2, r0
     402:	70 00       	.word	0x0070	; ????
     404:	00 d0       	rcall	.+0      	; 0x406 <__trampolines_end+0x21e>
     406:	a8 a8       	ldd	r10, Y+48	; 0x30
     408:	88 88       	ldd	r8, Y+16	; 0x10
     40a:	00 00       	nop
     40c:	b0 c8       	rjmp	.-3744   	; 0xfffff56e <__eeprom_end+0xff7ef56e>
     40e:	88 88       	ldd	r8, Y+16	; 0x10
     410:	88 00       	.word	0x0088	; ????
     412:	00 70       	andi	r16, 0x00	; 0
     414:	88 88       	ldd	r8, Y+16	; 0x10
     416:	88 70       	andi	r24, 0x08	; 8
     418:	00 00       	nop
     41a:	f0 88       	ldd	r15, Z+16	; 0x10
     41c:	f0 80       	ld	r15, Z
     41e:	80 00       	.word	0x0080	; ????
     420:	00 68       	ori	r16, 0x80	; 128
     422:	98 78       	andi	r25, 0x88	; 136
     424:	08 08       	sbc	r0, r8
     426:	00 00       	nop
     428:	b0 c8       	rjmp	.-3744   	; 0xfffff58a <__eeprom_end+0xff7ef58a>
     42a:	80 80       	ld	r8, Z
     42c:	80 00       	.word	0x0080	; ????
     42e:	00 70       	andi	r16, 0x00	; 0
     430:	80 70       	andi	r24, 0x00	; 0
     432:	08 f0       	brcs	.+2      	; 0x436 <__trampolines_end+0x24e>
     434:	40 40       	sbci	r20, 0x00	; 0
     436:	e0 40       	sbci	r30, 0x00	; 0
     438:	40 48       	sbci	r20, 0x80	; 128
     43a:	30 00       	.word	0x0030	; ????
     43c:	00 88       	ldd	r0, Z+16	; 0x10
     43e:	88 88       	ldd	r8, Y+16	; 0x10
     440:	98 68       	ori	r25, 0x88	; 136
     442:	00 00       	nop
     444:	88 88       	ldd	r8, Y+16	; 0x10
     446:	88 50       	subi	r24, 0x08	; 8
     448:	20 00       	.word	0x0020	; ????
     44a:	00 88       	ldd	r0, Z+16	; 0x10
     44c:	88 a8       	ldd	r8, Y+48	; 0x30
     44e:	a8 50       	subi	r26, 0x08	; 8
     450:	00 00       	nop
     452:	88 50       	subi	r24, 0x08	; 8
     454:	20 50       	subi	r18, 0x00	; 0
     456:	88 00       	.word	0x0088	; ????
     458:	00 88       	ldd	r0, Z+16	; 0x10
     45a:	88 78       	andi	r24, 0x88	; 136
     45c:	08 70       	andi	r16, 0x08	; 8
     45e:	00 00       	nop
     460:	f8 10       	cpse	r15, r8
     462:	20 40       	sbci	r18, 0x00	; 0
     464:	f8 10       	cpse	r15, r8
     466:	20 20       	and	r2, r0
     468:	40 20       	and	r4, r0
     46a:	20 10       	cpse	r2, r0
     46c:	20 20       	and	r2, r0
     46e:	20 20       	and	r2, r0
     470:	20 20       	and	r2, r0
     472:	20 40       	sbci	r18, 0x00	; 0
     474:	20 20       	and	r2, r0
     476:	10 20       	and	r1, r0
     478:	20 40       	sbci	r18, 0x00	; 0

0000047a <__ctors_end>:
     47a:	11 24       	eor	r1, r1
     47c:	1f be       	out	0x3f, r1	; 63
     47e:	cf ef       	ldi	r28, 0xFF	; 255
     480:	cd bf       	out	0x3d, r28	; 61
     482:	df e5       	ldi	r29, 0x5F	; 95
     484:	de bf       	out	0x3e, r29	; 62
     486:	00 e0       	ldi	r16, 0x00	; 0
     488:	0c bf       	out	0x3c, r16	; 60

0000048a <__do_copy_data>:
     48a:	10 e2       	ldi	r17, 0x20	; 32
     48c:	a0 e0       	ldi	r26, 0x00	; 0
     48e:	b0 e2       	ldi	r27, 0x20	; 32
     490:	ec e2       	ldi	r30, 0x2C	; 44
     492:	f1 e1       	ldi	r31, 0x11	; 17
     494:	00 e0       	ldi	r16, 0x00	; 0
     496:	0b bf       	out	0x3b, r16	; 59
     498:	02 c0       	rjmp	.+4      	; 0x49e <__do_copy_data+0x14>
     49a:	07 90       	elpm	r0, Z+
     49c:	0d 92       	st	X+, r0
     49e:	aa 3f       	cpi	r26, 0xFA	; 250
     4a0:	b1 07       	cpc	r27, r17
     4a2:	d9 f7       	brne	.-10     	; 0x49a <__do_copy_data+0x10>

000004a4 <__do_clear_bss>:
     4a4:	23 e2       	ldi	r18, 0x23	; 35
     4a6:	aa ef       	ldi	r26, 0xFA	; 250
     4a8:	b0 e2       	ldi	r27, 0x20	; 32
     4aa:	01 c0       	rjmp	.+2      	; 0x4ae <.do_clear_bss_start>

000004ac <.do_clear_bss_loop>:
     4ac:	1d 92       	st	X+, r1

000004ae <.do_clear_bss_start>:
     4ae:	a7 32       	cpi	r26, 0x27	; 39
     4b0:	b2 07       	cpc	r27, r18
     4b2:	e1 f7       	brne	.-8      	; 0x4ac <.do_clear_bss_loop>
     4b4:	4a d0       	rcall	.+148    	; 0x54a <main>
     4b6:	38 c6       	rjmp	.+3184   	; 0x1128 <_exit>

000004b8 <__bad_interrupt>:
     4b8:	a3 cd       	rjmp	.-1210   	; 0x0 <__vectors>

000004ba <uart_init>:
	while(cl<20)
	{
		fp[cl]=' ';
		cl++;
	}
	j=0;
     4ba:	88 e0       	ldi	r24, 0x08	; 8
     4bc:	80 93 45 06 	sts	0x0645, r24
     4c0:	80 93 41 06 	sts	0x0641, r24
     4c4:	8f ec       	ldi	r24, 0xCF	; 207
     4c6:	80 93 a6 08 	sts	0x08A6, r24
     4ca:	10 92 a7 08 	sts	0x08A7, r1
     4ce:	10 92 a3 08 	sts	0x08A3, r1
     4d2:	83 e0       	ldi	r24, 0x03	; 3
     4d4:	80 93 a5 08 	sts	0x08A5, r24
     4d8:	88 e1       	ldi	r24, 0x18	; 24
     4da:	80 93 a4 08 	sts	0x08A4, r24
     4de:	08 95       	ret

000004e0 <send_char>:
     4e0:	80 93 a0 08 	sts	0x08A0, r24
     4e4:	e1 ea       	ldi	r30, 0xA1	; 161
     4e6:	f8 e0       	ldi	r31, 0x08	; 8
     4e8:	80 81       	ld	r24, Z
     4ea:	85 ff       	sbrs	r24, 5
     4ec:	fd cf       	rjmp	.-6      	; 0x4e8 <send_char+0x8>
     4ee:	2f ef       	ldi	r18, 0xFF	; 255
     4f0:	81 ee       	ldi	r24, 0xE1	; 225
     4f2:	94 e0       	ldi	r25, 0x04	; 4
     4f4:	21 50       	subi	r18, 0x01	; 1
     4f6:	80 40       	sbci	r24, 0x00	; 0
     4f8:	90 40       	sbci	r25, 0x00	; 0
     4fa:	e1 f7       	brne	.-8      	; 0x4f4 <send_char+0x14>
     4fc:	00 c0       	rjmp	.+0      	; 0x4fe <send_char+0x1e>
     4fe:	00 00       	nop
     500:	08 95       	ret

00000502 <receive_data>:
     502:	e1 ea       	ldi	r30, 0xA1	; 161
     504:	f8 e0       	ldi	r31, 0x08	; 8
     506:	80 81       	ld	r24, Z
     508:	88 23       	and	r24, r24
     50a:	ec f7       	brge	.-6      	; 0x506 <receive_data+0x4>
     50c:	80 91 a0 08 	lds	r24, 0x08A0
     510:	08 95       	ret

00000512 <convert>:
	#else
		//round up by default
		__ticks_dc = (uint32_t)(ceil(fabs(__tmp)));
	#endif

	__builtin_avr_delay_cycles(__ticks_dc);
     512:	2f ef       	ldi	r18, 0xFF	; 255
     514:	89 ef       	ldi	r24, 0xF9	; 249
     516:	90 e0       	ldi	r25, 0x00	; 0
     518:	21 50       	subi	r18, 0x01	; 1
     51a:	80 40       	sbci	r24, 0x00	; 0
     51c:	90 40       	sbci	r25, 0x00	; 0
     51e:	e1 f7       	brne	.-8      	; 0x518 <convert+0x6>
     520:	00 c0       	rjmp	.+0      	; 0x522 <convert+0x10>
     522:	00 00       	nop
     524:	2f ef       	ldi	r18, 0xFF	; 255
     526:	81 ee       	ldi	r24, 0xE1	; 225
     528:	94 e0       	ldi	r25, 0x04	; 4
     52a:	21 50       	subi	r18, 0x01	; 1
     52c:	80 40       	sbci	r24, 0x00	; 0
     52e:	90 40       	sbci	r25, 0x00	; 0
     530:	e1 f7       	brne	.-8      	; 0x52a <convert+0x18>
     532:	00 c0       	rjmp	.+0      	; 0x534 <convert+0x22>
     534:	00 00       	nop
     536:	2f ef       	ldi	r18, 0xFF	; 255
     538:	89 ef       	ldi	r24, 0xF9	; 249
     53a:	90 e0       	ldi	r25, 0x00	; 0
     53c:	21 50       	subi	r18, 0x01	; 1
     53e:	80 40       	sbci	r24, 0x00	; 0
     540:	90 40       	sbci	r25, 0x00	; 0
     542:	e1 f7       	brne	.-8      	; 0x53c <convert+0x2a>
     544:	00 c0       	rjmp	.+0      	; 0x546 <convert+0x34>
     546:	00 00       	nop
     548:	08 95       	ret

0000054a <main>:
int main (void )
{
	
	
	//Init_LCD();
	uart_init();
     54a:	b7 df       	rcall	.-146    	; 0x4ba <uart_init>
	gfx_mono_draw_string("EVM with FP",0, 0, &sysfont);
	_delay_ms(50);
	i=0;
	while(1)
	{
		if((PORTA_IN & 0x00)==0x00)//checking for sw1
     54c:	c8 e0       	ldi	r28, 0x08	; 8
     54e:	d6 e0       	ldi	r29, 0x06	; 6
				}
				_delay_ms(10);
				n=0;
				while(n<20)
				{
					if((fp[n]==0xEF)&&(fp[n+1]==0x01)&&(fp[n+9]==0x00))
     550:	0f 2e       	mov	r0, r31
     552:	fa e0       	ldi	r31, 0x0A	; 10
     554:	af 2e       	mov	r10, r31
     556:	f3 e2       	ldi	r31, 0x23	; 35
     558:	bf 2e       	mov	r11, r31
     55a:	f0 2d       	mov	r31, r0
     55c:	0f 2e       	mov	r0, r31
     55e:	fb e0       	ldi	r31, 0x0B	; 11
     560:	cf 2e       	mov	r12, r31
     562:	f3 e2       	ldi	r31, 0x23	; 35
     564:	df 2e       	mov	r13, r31
     566:	f0 2d       	mov	r31, r0
     568:	0f 2e       	mov	r0, r31
     56a:	f3 e1       	ldi	r31, 0x13	; 19
     56c:	ef 2e       	mov	r14, r31
     56e:	f3 e2       	ldi	r31, 0x23	; 35
     570:	ff 2e       	mov	r15, r31
     572:	f0 2d       	mov	r31, r0
						b1=0;
						b2=0;
						i1=0;
						i2=0;
						id=0;
						b1=fp[n+11]/10;
     574:	1d ec       	ldi	r17, 0xCD	; 205
	//Init_LCD();
	uart_init();
	again:
	//LCD_cmd(0x01);
	//_delay_ms(50);
	gfx_mono_init();
     576:	b1 d2       	rcall	.+1378   	; 0xada <gfx_mono_st7565r_init>
	gfx_mono_draw_string(" welcome ",0, 0, &sysfont);
     578:	28 e2       	ldi	r18, 0x28	; 40
     57a:	30 e2       	ldi	r19, 0x20	; 32
     57c:	40 e0       	ldi	r20, 0x00	; 0
     57e:	60 e0       	ldi	r22, 0x00	; 0
     580:	8f e2       	ldi	r24, 0x2F	; 47
     582:	90 e2       	ldi	r25, 0x20	; 32
     584:	2c d4       	rcall	.+2136   	; 0xdde <gfx_mono_draw_string>
     586:	2f ef       	ldi	r18, 0xFF	; 255
     588:	81 ee       	ldi	r24, 0xE1	; 225
     58a:	94 e0       	ldi	r25, 0x04	; 4
     58c:	21 50       	subi	r18, 0x01	; 1
     58e:	80 40       	sbci	r24, 0x00	; 0
     590:	90 40       	sbci	r25, 0x00	; 0
     592:	e1 f7       	brne	.-8      	; 0x58c <main+0x42>
     594:	00 c0       	rjmp	.+0      	; 0x596 <main+0x4c>
     596:	00 00       	nop
	_delay_ms(50);
	//LCD_cmd(0x01);
	//LCD_cmd(0xc0);
	gfx_mono_draw_string("EVM with FP",0, 0, &sysfont);
     598:	28 e2       	ldi	r18, 0x28	; 40
     59a:	30 e2       	ldi	r19, 0x20	; 32
     59c:	40 e0       	ldi	r20, 0x00	; 0
     59e:	60 e0       	ldi	r22, 0x00	; 0
     5a0:	89 e3       	ldi	r24, 0x39	; 57
     5a2:	90 e2       	ldi	r25, 0x20	; 32
     5a4:	1c d4       	rcall	.+2104   	; 0xdde <gfx_mono_draw_string>
     5a6:	ef ef       	ldi	r30, 0xFF	; 255
     5a8:	f1 ee       	ldi	r31, 0xE1	; 225
     5aa:	24 e0       	ldi	r18, 0x04	; 4
     5ac:	e1 50       	subi	r30, 0x01	; 1
     5ae:	f0 40       	sbci	r31, 0x00	; 0
     5b0:	20 40       	sbci	r18, 0x00	; 0
     5b2:	e1 f7       	brne	.-8      	; 0x5ac <main+0x62>
     5b4:	00 c0       	rjmp	.+0      	; 0x5b6 <main+0x6c>
     5b6:	00 00       	nop
	_delay_ms(50);
	i=0;
     5b8:	10 92 07 21 	sts	0x2107, r1
	while(1)
	{
		if((PORTA_IN & 0x00)==0x00)//checking for sw1
     5bc:	88 81       	ld	r24, Y
		{
			while(PORTA_IN==0x00);
     5be:	88 81       	ld	r24, Y
     5c0:	88 23       	and	r24, r24
     5c2:	e9 f3       	breq	.-6      	; 0x5be <main+0x74>
			//LCD_cmd(0x01);
			gfx_mono_draw_string("Enrolling....",0, 0, &sysfont);
     5c4:	28 e2       	ldi	r18, 0x28	; 40
     5c6:	30 e2       	ldi	r19, 0x20	; 32
     5c8:	40 e0       	ldi	r20, 0x00	; 0
     5ca:	60 e0       	ldi	r22, 0x00	; 0
     5cc:	85 e4       	ldi	r24, 0x45	; 69
     5ce:	90 e2       	ldi	r25, 0x20	; 32
     5d0:	06 d4       	rcall	.+2060   	; 0xdde <gfx_mono_draw_string>
     5d2:	8f ef       	ldi	r24, 0xFF	; 255
     5d4:	91 ee       	ldi	r25, 0xE1	; 225
     5d6:	e4 e0       	ldi	r30, 0x04	; 4
     5d8:	81 50       	subi	r24, 0x01	; 1
     5da:	90 40       	sbci	r25, 0x00	; 0
     5dc:	e0 40       	sbci	r30, 0x00	; 0
     5de:	e1 f7       	brne	.-8      	; 0x5d8 <main+0x8e>
     5e0:	00 c0       	rjmp	.+0      	; 0x5e2 <main+0x98>
     5e2:	00 00       	nop
			_delay_ms(50);
			i=0;
     5e4:	10 92 07 21 	sts	0x2107, r1
			while(i<12)
     5e8:	e0 e0       	ldi	r30, 0x00	; 0
			{
				send_char(enroll[i]);
     5ea:	f0 e0       	ldi	r31, 0x00	; 0
     5ec:	e4 5e       	subi	r30, 0xE4	; 228
     5ee:	ff 4d       	sbci	r31, 0xDF	; 223
     5f0:	80 81       	ld	r24, Z
     5f2:	76 df       	rcall	.-276    	; 0x4e0 <send_char>
				i++;
     5f4:	e0 91 07 21 	lds	r30, 0x2107
     5f8:	ef 5f       	subi	r30, 0xFF	; 255
     5fa:	e0 93 07 21 	sts	0x2107, r30
			while(PORTA_IN==0x00);
			//LCD_cmd(0x01);
			gfx_mono_draw_string("Enrolling....",0, 0, &sysfont);
			_delay_ms(50);
			i=0;
			while(i<12)
     5fe:	ec 30       	cpi	r30, 0x0C	; 12
     600:	a0 f3       	brcs	.-24     	; 0x5ea <main+0xa0>
			{
				send_char(enroll[i]);
				i++;
			}
			rec= receive_data();
     602:	7f df       	rcall	.-258    	; 0x502 <receive_data>
     604:	80 93 26 23 	sts	0x2326, r24
			rec=receive_data();
     608:	7c df       	rcall	.-264    	; 0x502 <receive_data>
     60a:	80 93 26 23 	sts	0x2326, r24
			rec=receive_data();
     60e:	79 df       	rcall	.-270    	; 0x502 <receive_data>
     610:	80 93 26 23 	sts	0x2326, r24
			rec=receive_data();
     614:	76 df       	rcall	.-276    	; 0x502 <receive_data>
     616:	80 93 26 23 	sts	0x2326, r24
			rec=receive_data();
     61a:	73 df       	rcall	.-282    	; 0x502 <receive_data>
     61c:	80 93 26 23 	sts	0x2326, r24
			rec=receive_data();
     620:	70 df       	rcall	.-288    	; 0x502 <receive_data>
     622:	80 93 26 23 	sts	0x2326, r24
			rec=receive_data();
     626:	6d df       	rcall	.-294    	; 0x502 <receive_data>
     628:	80 93 26 23 	sts	0x2326, r24
			rec=receive_data();
     62c:	6a df       	rcall	.-300    	; 0x502 <receive_data>
     62e:	80 93 26 23 	sts	0x2326, r24
			rec=receive_data();
     632:	67 df       	rcall	.-306    	; 0x502 <receive_data>
     634:	80 93 26 23 	sts	0x2326, r24
			rec=receive_data();
     638:	64 df       	rcall	.-312    	; 0x502 <receive_data>
     63a:	80 93 26 23 	sts	0x2326, r24
			dummy=receive_data();
     63e:	61 df       	rcall	.-318    	; 0x502 <receive_data>
     640:	80 93 20 23 	sts	0x2320, r24
			dummy=receive_data();
     644:	5e df       	rcall	.-324    	; 0x502 <receive_data>
     646:	80 93 20 23 	sts	0x2320, r24
			if(!rec)//{LCD_cmd(0x01);
     64a:	80 91 26 23 	lds	r24, 0x2326
     64e:	81 11       	cpse	r24, r1
     650:	b2 c1       	rjmp	.+868    	; 0x9b6 <main+0x46c>
				gfx_mono_draw_string("Enrolling ok",0, 0, &sysfont);
     652:	28 e2       	ldi	r18, 0x28	; 40
     654:	30 e2       	ldi	r19, 0x20	; 32
     656:	40 e0       	ldi	r20, 0x00	; 0
     658:	60 e0       	ldi	r22, 0x00	; 0
     65a:	83 e5       	ldi	r24, 0x53	; 83
     65c:	90 e2       	ldi	r25, 0x20	; 32
     65e:	bf d3       	rcall	.+1918   	; 0xdde <gfx_mono_draw_string>
				gfx_mono_init();
				//LCD_cmd(0x01);
				gfx_mono_draw_string("Enrolling not ok",0, 0, &sysfont);
				goto again;
			}
			i=0;
     660:	10 92 07 21 	sts	0x2107, r1
     664:	aa c1       	rjmp	.+852    	; 0x9ba <main+0x470>
			while(i<13)
			{
				send_char(generate_ch[i]);
     666:	f0 e0       	ldi	r31, 0x00	; 0
     668:	e1 5f       	subi	r30, 0xF1	; 241
     66a:	ff 4d       	sbci	r31, 0xDF	; 223
     66c:	80 81       	ld	r24, Z
     66e:	38 df       	rcall	.-400    	; 0x4e0 <send_char>
				i++;
     670:	e0 91 07 21 	lds	r30, 0x2107
     674:	ef 5f       	subi	r30, 0xFF	; 255
     676:	e0 93 07 21 	sts	0x2107, r30
				//LCD_cmd(0x01);
				gfx_mono_draw_string("Enrolling not ok",0, 0, &sysfont);
				goto again;
			}
			i=0;
			while(i<13)
     67a:	ed 30       	cpi	r30, 0x0D	; 13
     67c:	a0 f3       	brcs	.-24     	; 0x666 <main+0x11c>
			{
				send_char(generate_ch[i]);
				i++;
			}
			rec=receive_data();
     67e:	41 df       	rcall	.-382    	; 0x502 <receive_data>
     680:	80 93 26 23 	sts	0x2326, r24
			rec=receive_data();
     684:	3e df       	rcall	.-388    	; 0x502 <receive_data>
     686:	80 93 26 23 	sts	0x2326, r24
			rec=receive_data();
     68a:	3b df       	rcall	.-394    	; 0x502 <receive_data>
     68c:	80 93 26 23 	sts	0x2326, r24
			rec=receive_data();
     690:	38 df       	rcall	.-400    	; 0x502 <receive_data>
     692:	80 93 26 23 	sts	0x2326, r24
			rec=receive_data();
     696:	35 df       	rcall	.-406    	; 0x502 <receive_data>
     698:	80 93 26 23 	sts	0x2326, r24
			rec=receive_data();
     69c:	32 df       	rcall	.-412    	; 0x502 <receive_data>
     69e:	80 93 26 23 	sts	0x2326, r24
			rec=receive_data();
     6a2:	2f df       	rcall	.-418    	; 0x502 <receive_data>
     6a4:	80 93 26 23 	sts	0x2326, r24
			rec=receive_data();
     6a8:	2c df       	rcall	.-424    	; 0x502 <receive_data>
     6aa:	80 93 26 23 	sts	0x2326, r24
			rec=receive_data();
     6ae:	29 df       	rcall	.-430    	; 0x502 <receive_data>
     6b0:	80 93 26 23 	sts	0x2326, r24
			rec=receive_data();
     6b4:	26 df       	rcall	.-436    	; 0x502 <receive_data>
     6b6:	80 93 26 23 	sts	0x2326, r24
			dummy=receive_data();
     6ba:	23 df       	rcall	.-442    	; 0x502 <receive_data>
     6bc:	80 93 20 23 	sts	0x2320, r24
			dummy=receive_data();
     6c0:	20 df       	rcall	.-448    	; 0x502 <receive_data>
     6c2:	80 93 20 23 	sts	0x2320, r24
			if(!rec)
     6c6:	80 91 26 23 	lds	r24, 0x2326
     6ca:	81 11       	cpse	r24, r1
     6cc:	0c c0       	rjmp	.+24     	; 0x6e6 <main+0x19c>
			{
				gfx_mono_init();
     6ce:	05 d2       	rcall	.+1034   	; 0xada <gfx_mono_st7565r_init>
				//LCD_cmd(0x01);
				gfx_mono_draw_string("genchar ok",0, 0, &sysfont);
     6d0:	28 e2       	ldi	r18, 0x28	; 40
     6d2:	30 e2       	ldi	r19, 0x20	; 32
     6d4:	40 e0       	ldi	r20, 0x00	; 0
     6d6:	60 e0       	ldi	r22, 0x00	; 0
     6d8:	80 e6       	ldi	r24, 0x60	; 96
     6da:	90 e2       	ldi	r25, 0x20	; 32
     6dc:	80 d3       	rcall	.+1792   	; 0xdde <gfx_mono_draw_string>
				//LCD_cmd(0x01);
				gfx_mono_draw_string("genchar not ok",0, 0, &sysfont);
				goto again;
			}

			i=0;
     6de:	10 92 07 21 	sts	0x2107, r1
			while(i<15)
     6e2:	e0 e0       	ldi	r30, 0x00	; 0
     6e4:	08 c0       	rjmp	.+16     	; 0x6f6 <main+0x1ac>
				gfx_mono_draw_string("genchar ok",0, 0, &sysfont);
			}
			else
			{
				//LCD_cmd(0x01);
				gfx_mono_draw_string("genchar not ok",0, 0, &sysfont);
     6e6:	28 e2       	ldi	r18, 0x28	; 40
     6e8:	30 e2       	ldi	r19, 0x20	; 32
     6ea:	40 e0       	ldi	r20, 0x00	; 0
     6ec:	60 e0       	ldi	r22, 0x00	; 0
     6ee:	8b e6       	ldi	r24, 0x6B	; 107
     6f0:	90 e2       	ldi	r25, 0x20	; 32
     6f2:	75 d3       	rcall	.+1770   	; 0xdde <gfx_mono_draw_string>
				goto again;
     6f4:	40 cf       	rjmp	.-384    	; 0x576 <main+0x2c>
			}

			i=0;
			while(i<15)
			{
				send_char(store[i]);
     6f6:	f0 e0       	ldi	r31, 0x00	; 0
     6f8:	e0 50       	subi	r30, 0x00	; 0
     6fa:	f0 4e       	sbci	r31, 0xE0	; 224
     6fc:	80 81       	ld	r24, Z
     6fe:	f0 de       	rcall	.-544    	; 0x4e0 <send_char>
				i++;
     700:	e0 91 07 21 	lds	r30, 0x2107
     704:	ef 5f       	subi	r30, 0xFF	; 255
     706:	e0 93 07 21 	sts	0x2107, r30
				gfx_mono_draw_string("genchar not ok",0, 0, &sysfont);
				goto again;
			}

			i=0;
			while(i<15)
     70a:	ef 30       	cpi	r30, 0x0F	; 15
     70c:	a0 f3       	brcs	.-24     	; 0x6f6 <main+0x1ac>
			{
				send_char(store[i]);
				i++;
			}
			rec=receive_data();
     70e:	f9 de       	rcall	.-526    	; 0x502 <receive_data>
     710:	80 93 26 23 	sts	0x2326, r24
			rec=receive_data();
     714:	f6 de       	rcall	.-532    	; 0x502 <receive_data>
     716:	80 93 26 23 	sts	0x2326, r24
			rec=receive_data();
     71a:	f3 de       	rcall	.-538    	; 0x502 <receive_data>
     71c:	80 93 26 23 	sts	0x2326, r24
			rec=receive_data();
     720:	f0 de       	rcall	.-544    	; 0x502 <receive_data>
     722:	80 93 26 23 	sts	0x2326, r24
			rec=receive_data();
     726:	ed de       	rcall	.-550    	; 0x502 <receive_data>
     728:	80 93 26 23 	sts	0x2326, r24
			rec=receive_data();
     72c:	ea de       	rcall	.-556    	; 0x502 <receive_data>
     72e:	80 93 26 23 	sts	0x2326, r24
			rec=receive_data();
     732:	e7 de       	rcall	.-562    	; 0x502 <receive_data>
     734:	80 93 26 23 	sts	0x2326, r24
			rec=receive_data();
     738:	e4 de       	rcall	.-568    	; 0x502 <receive_data>
     73a:	80 93 26 23 	sts	0x2326, r24
			rec=receive_data();
     73e:	e1 de       	rcall	.-574    	; 0x502 <receive_data>
     740:	80 93 26 23 	sts	0x2326, r24
			rec=receive_data();
     744:	de de       	rcall	.-580    	; 0x502 <receive_data>
     746:	80 93 26 23 	sts	0x2326, r24
			dummy=receive_data();
     74a:	db de       	rcall	.-586    	; 0x502 <receive_data>
     74c:	80 93 20 23 	sts	0x2320, r24
			dummy=receive_data();
     750:	d8 de       	rcall	.-592    	; 0x502 <receive_data>
     752:	80 93 20 23 	sts	0x2320, r24
			if(!rec)
     756:	80 91 26 23 	lds	r24, 0x2326
     75a:	81 11       	cpse	r24, r1
     75c:	0c cf       	rjmp	.-488    	; 0x576 <main+0x2c>
			{
				//LCD_cmd(0x01);
				gfx_mono_draw_string("store ok",0, 0, &sysfont);
     75e:	28 e2       	ldi	r18, 0x28	; 40
     760:	30 e2       	ldi	r19, 0x20	; 32
     762:	40 e0       	ldi	r20, 0x00	; 0
     764:	60 e0       	ldi	r22, 0x00	; 0
     766:	8a e7       	ldi	r24, 0x7A	; 122
     768:	90 e2       	ldi	r25, 0x20	; 32
     76a:	39 d3       	rcall	.+1650   	; 0xdde <gfx_mono_draw_string>
			//en_byte=12;131.

			/***********133.
			identifying your ID134.
			*******************/
			if(PORTA_IN=0x00)//checking for sw2136.
     76c:	18 82       	st	Y, r1
				en_byte=16;
			}
			/***********151.
			final result152.
			*******************/
			if(PORTA_IN==0x00)//checking for sw3154.
     76e:	88 81       	ld	r24, Y
     770:	81 11       	cpse	r24, r1
     772:	28 c0       	rjmp	.+80     	; 0x7c4 <main+0x27a>
			{
				while(PORTA_IN==0x00);
     774:	88 81       	ld	r24, Y
     776:	88 23       	and	r24, r24
     778:	e9 f3       	breq	.-6      	; 0x774 <main+0x22a>
				//LCD_cmd(0x01);
				gfx_mono_draw_string("A B C D",0, 0, &sysfont);
     77a:	28 e2       	ldi	r18, 0x28	; 40
     77c:	30 e2       	ldi	r19, 0x20	; 32
     77e:	40 e0       	ldi	r20, 0x00	; 0
     780:	60 e0       	ldi	r22, 0x00	; 0
     782:	83 e8       	ldi	r24, 0x83	; 131
     784:	90 e2       	ldi	r25, 0x20	; 32
     786:	2b d3       	rcall	.+1622   	; 0xdde <gfx_mono_draw_string>
				//LCD_cmd(0xc0);
				convert(part_A);
     788:	80 91 00 21 	lds	r24, 0x2100
     78c:	c2 de       	rcall	.-636    	; 0x512 <convert>
				//LCD_cmd(0xc4);
				convert(part_B);
     78e:	80 91 ff 20 	lds	r24, 0x20FF
     792:	bf de       	rcall	.-642    	; 0x512 <convert>
				//LCD_cmd(0xc7);
				convert(part_C);
     794:	80 91 fe 20 	lds	r24, 0x20FE
     798:	bc de       	rcall	.-648    	; 0x512 <convert>
				//LCD_cmd(0xcc);
				convert(part_D);
     79a:	80 91 fd 20 	lds	r24, 0x20FD
     79e:	b9 de       	rcall	.-654    	; 0x512 <convert>
     7a0:	ff ef       	ldi	r31, 0xFF	; 255
     7a2:	29 ef       	ldi	r18, 0xF9	; 249
     7a4:	80 e0       	ldi	r24, 0x00	; 0
     7a6:	f1 50       	subi	r31, 0x01	; 1
     7a8:	20 40       	sbci	r18, 0x00	; 0
     7aa:	80 40       	sbci	r24, 0x00	; 0
     7ac:	e1 f7       	brne	.-8      	; 0x7a6 <main+0x25c>
     7ae:	00 c0       	rjmp	.+0      	; 0x7b0 <main+0x266>
     7b0:	00 00       	nop
				_delay_ms(10);
				//_delay_ms(10);
				part_A=part_B=part_C=part_D=0;
     7b2:	10 92 fd 20 	sts	0x20FD, r1
     7b6:	10 92 fe 20 	sts	0x20FE, r1
     7ba:	10 92 ff 20 	sts	0x20FF, r1
     7be:	10 92 00 21 	sts	0x2100, r1
				goto again;
     7c2:	d9 ce       	rjmp	.-590    	; 0x576 <main+0x2c>
			}
			/********* receiving data from FP *********/
			if(check==1)
     7c4:	80 91 fc 20 	lds	r24, 0x20FC
     7c8:	81 30       	cpi	r24, 0x01	; 1
     7ca:	09 f0       	breq	.+2      	; 0x7ce <main+0x284>
     7cc:	90 c0       	rjmp	.+288    	; 0x8ee <main+0x3a4>
			{
				count=0;
     7ce:	10 92 fb 20 	sts	0x20FB, r1
				check=0;
     7d2:	10 92 fc 20 	sts	0x20FC, r1
				while(count<en_byte)
     7d6:	00 e0       	ldi	r16, 0x00	; 0
     7d8:	80 91 21 23 	lds	r24, 0x2321
     7dc:	18 16       	cp	r1, r24
     7de:	88 f4       	brcc	.+34     	; 0x802 <main+0x2b8>
				{
					fp[count]=receive_data();;
     7e0:	90 de       	rcall	.-736    	; 0x502 <receive_data>
     7e2:	e0 2f       	mov	r30, r16
     7e4:	f0 e0       	ldi	r31, 0x00	; 0
     7e6:	e6 5f       	subi	r30, 0xF6	; 246
     7e8:	fc 4d       	sbci	r31, 0xDC	; 220
     7ea:	80 83       	st	Z, r24
					count++;
     7ec:	e0 91 fb 20 	lds	r30, 0x20FB
     7f0:	ef 5f       	subi	r30, 0xFF	; 255
     7f2:	e0 93 fb 20 	sts	0x20FB, r30
			/********* receiving data from FP *********/
			if(check==1)
			{
				count=0;
				check=0;
				while(count<en_byte)
     7f6:	80 91 21 23 	lds	r24, 0x2321
     7fa:	e8 17       	cp	r30, r24
     7fc:	10 f4       	brcc	.+4      	; 0x802 <main+0x2b8>
     7fe:	0e 2f       	mov	r16, r30
     800:	ef cf       	rjmp	.-34     	; 0x7e0 <main+0x296>
     802:	9f ef       	ldi	r25, 0xFF	; 255
     804:	e9 ef       	ldi	r30, 0xF9	; 249
     806:	f0 e0       	ldi	r31, 0x00	; 0
     808:	91 50       	subi	r25, 0x01	; 1
     80a:	e0 40       	sbci	r30, 0x00	; 0
     80c:	f0 40       	sbci	r31, 0x00	; 0
     80e:	e1 f7       	brne	.-8      	; 0x808 <main+0x2be>
     810:	00 c0       	rjmp	.+0      	; 0x812 <main+0x2c8>
     812:	00 00       	nop
				{
					fp[count]=receive_data();;
					count++;
				}
				_delay_ms(10);
				n=0;
     814:	10 92 01 21 	sts	0x2101, r1
				while(n<20)
				{
					if((fp[n]==0xEF)&&(fp[n+1]==0x01)&&(fp[n+9]==0x00))
     818:	f5 01       	movw	r30, r10
     81a:	80 81       	ld	r24, Z
     81c:	8f 3e       	cpi	r24, 0xEF	; 239
     81e:	09 f0       	breq	.+2      	; 0x822 <main+0x2d8>
     820:	55 c0       	rjmp	.+170    	; 0x8cc <main+0x382>
     822:	f6 01       	movw	r30, r12
     824:	80 81       	ld	r24, Z
     826:	81 30       	cpi	r24, 0x01	; 1
     828:	09 f0       	breq	.+2      	; 0x82c <main+0x2e2>
     82a:	50 c0       	rjmp	.+160    	; 0x8cc <main+0x382>
     82c:	f7 01       	movw	r30, r14
     82e:	80 81       	ld	r24, Z
     830:	81 11       	cpse	r24, r1
     832:	4c c0       	rjmp	.+152    	; 0x8cc <main+0x382>
					{
						//LCD_cmd(0x01);
						//LCD_cmd(0x80);
						gfx_mono_draw_string(" Successfully ",0, 0, &sysfont);
     834:	28 e2       	ldi	r18, 0x28	; 40
     836:	30 e2       	ldi	r19, 0x20	; 32
     838:	40 e0       	ldi	r20, 0x00	; 0
     83a:	60 e0       	ldi	r22, 0x00	; 0
     83c:	8b e8       	ldi	r24, 0x8B	; 139
     83e:	90 e2       	ldi	r25, 0x20	; 32
     840:	ce d2       	rcall	.+1436   	; 0xdde <gfx_mono_draw_string>
						//LCD_cmd(0xc0);
						gfx_mono_draw_string(" completed",0, 0, &sysfont);
     842:	28 e2       	ldi	r18, 0x28	; 40
     844:	30 e2       	ldi	r19, 0x20	; 32
     846:	40 e0       	ldi	r20, 0x00	; 0
     848:	60 e0       	ldi	r22, 0x00	; 0
     84a:	8a e9       	ldi	r24, 0x9A	; 154
     84c:	90 e2       	ldi	r25, 0x20	; 32
     84e:	c7 d2       	rcall	.+1422   	; 0xdde <gfx_mono_draw_string>
						b1=0;
						b2=0;
						i1=0;
						i2=0;
						id=0;
						b1=fp[n+11]/10;
     850:	e0 91 01 21 	lds	r30, 0x2101
     854:	f0 e0       	ldi	r31, 0x00	; 0
     856:	e6 5f       	subi	r30, 0xF6	; 246
     858:	fc 4d       	sbci	r31, 0xDC	; 220
     85a:	23 85       	ldd	r18, Z+11	; 0x0b
     85c:	21 9f       	mul	r18, r17
     85e:	81 2d       	mov	r24, r1
     860:	11 24       	eor	r1, r1
     862:	86 95       	lsr	r24
     864:	86 95       	lsr	r24
     866:	86 95       	lsr	r24
     868:	80 93 06 21 	sts	0x2106, r24
						b2=fp[n+11]%10;
     86c:	98 2f       	mov	r25, r24
     86e:	99 0f       	add	r25, r25
     870:	39 2f       	mov	r19, r25
     872:	33 0f       	add	r19, r19
     874:	33 0f       	add	r19, r19
     876:	93 0f       	add	r25, r19
     878:	29 1b       	sub	r18, r25
     87a:	20 93 05 21 	sts	0x2105, r18
						// LCD_cmd(0xc0,0);199.
						// message(0xc0,"Id:");200.
						// LCD_cmd(0xC3,0);201.
						// LCD_cmd(b1+0x30,1);202.
						// LCD_cmd(b2+0x30,1);203.
						i1=b1-48;
     87e:	80 53       	subi	r24, 0x30	; 48
						i1=i1*10;
     880:	88 0f       	add	r24, r24
     882:	98 2f       	mov	r25, r24
     884:	99 0f       	add	r25, r25
     886:	99 0f       	add	r25, r25
     888:	98 0f       	add	r25, r24
     88a:	90 93 04 21 	sts	0x2104, r25
						i2=b2-48;
     88e:	80 ed       	ldi	r24, 0xD0	; 208
     890:	82 0f       	add	r24, r18
     892:	80 93 03 21 	sts	0x2103, r24
						i2=i2*1;
						id=i1+i2;
     896:	89 0f       	add	r24, r25
     898:	80 93 02 21 	sts	0x2102, r24
     89c:	ff ef       	ldi	r31, 0xFF	; 255
     89e:	29 ef       	ldi	r18, 0xF9	; 249
     8a0:	80 e0       	ldi	r24, 0x00	; 0
     8a2:	f1 50       	subi	r31, 0x01	; 1
     8a4:	20 40       	sbci	r18, 0x00	; 0
     8a6:	80 40       	sbci	r24, 0x00	; 0
     8a8:	e1 f7       	brne	.-8      	; 0x8a2 <main+0x358>
     8aa:	00 c0       	rjmp	.+0      	; 0x8ac <main+0x362>
     8ac:	00 00       	nop
						_delay_ms(10);
						if(enroll_check ==1)
     8ae:	80 91 fa 20 	lds	r24, 0x20FA
     8b2:	81 30       	cpi	r24, 0x01	; 1
     8b4:	09 f0       	breq	.+2      	; 0x8b8 <main+0x36e>
     8b6:	5f ce       	rjmp	.-834    	; 0x576 <main+0x2c>
						{
							//LCD_cmd(0x01);
							gfx_mono_draw_string(" Plz poll ur vote ",0, 0, &sysfont);
     8b8:	28 e2       	ldi	r18, 0x28	; 40
     8ba:	30 e2       	ldi	r19, 0x20	; 32
     8bc:	40 e0       	ldi	r20, 0x00	; 0
     8be:	60 e0       	ldi	r22, 0x00	; 0
     8c0:	85 ea       	ldi	r24, 0xA5	; 165
     8c2:	90 e2       	ldi	r25, 0x20	; 32
     8c4:	8c d2       	rcall	.+1304   	; 0xdde <gfx_mono_draw_string>
							// clearfp();214.
							enroll_check=0;
     8c6:	10 92 fa 20 	sts	0x20FA, r1
							goto poll;
     8ca:	11 c0       	rjmp	.+34     	; 0x8ee <main+0x3a4>
								goto again;
					}
					else
					{
						//LCD_cmd(0x01);
						gfx_mono_draw_string(" Failed",0, 0, &sysfont);
     8cc:	28 e2       	ldi	r18, 0x28	; 40
     8ce:	30 e2       	ldi	r19, 0x20	; 32
     8d0:	40 e0       	ldi	r20, 0x00	; 0
     8d2:	60 e0       	ldi	r22, 0x00	; 0
     8d4:	88 eb       	ldi	r24, 0xB8	; 184
     8d6:	90 e2       	ldi	r25, 0x20	; 32
     8d8:	82 d2       	rcall	.+1284   	; 0xdde <gfx_mono_draw_string>
     8da:	9f ef       	ldi	r25, 0xFF	; 255
     8dc:	e9 ef       	ldi	r30, 0xF9	; 249
     8de:	f0 e0       	ldi	r31, 0x00	; 0
     8e0:	91 50       	subi	r25, 0x01	; 1
     8e2:	e0 40       	sbci	r30, 0x00	; 0
     8e4:	f0 40       	sbci	r31, 0x00	; 0
     8e6:	e1 f7       	brne	.-8      	; 0x8e0 <main+0x396>
     8e8:	00 c0       	rjmp	.+0      	; 0x8ea <main+0x3a0>
     8ea:	00 00       	nop
     8ec:	44 ce       	rjmp	.-888    	; 0x576 <main+0x2c>
			polling your vote231.
			----------------------------------------------------*/
			poll:
			while(1)
			{
				if(PORTA_IN==0x00) //sw1236.
     8ee:	88 81       	ld	r24, Y
     8f0:	81 11       	cpse	r24, r1
     8f2:	16 c0       	rjmp	.+44     	; 0x920 <main+0x3d6>
				{
					part_A++;
     8f4:	80 91 00 21 	lds	r24, 0x2100
     8f8:	8f 5f       	subi	r24, 0xFF	; 255
     8fa:	80 93 00 21 	sts	0x2100, r24
					//LCD_cmd(0x01);
					gfx_mono_draw_string("Vote for part A",0, 0, &sysfont);
     8fe:	28 e2       	ldi	r18, 0x28	; 40
     900:	30 e2       	ldi	r19, 0x20	; 32
     902:	40 e0       	ldi	r20, 0x00	; 0
     904:	60 e0       	ldi	r22, 0x00	; 0
     906:	80 ec       	ldi	r24, 0xC0	; 192
     908:	90 e2       	ldi	r25, 0x20	; 32
     90a:	69 d2       	rcall	.+1234   	; 0xdde <gfx_mono_draw_string>
     90c:	2f ef       	ldi	r18, 0xFF	; 255
     90e:	89 ef       	ldi	r24, 0xF9	; 249
     910:	90 e0       	ldi	r25, 0x00	; 0
     912:	21 50       	subi	r18, 0x01	; 1
     914:	80 40       	sbci	r24, 0x00	; 0
     916:	90 40       	sbci	r25, 0x00	; 0
     918:	e1 f7       	brne	.-8      	; 0x912 <main+0x3c8>
     91a:	00 c0       	rjmp	.+0      	; 0x91c <main+0x3d2>
     91c:	00 00       	nop
     91e:	2b ce       	rjmp	.-938    	; 0x576 <main+0x2c>
					_delay_ms(10);
					goto again;
				}
				if(PORTA_IN==0x00) //sw2243.
     920:	88 81       	ld	r24, Y
     922:	81 11       	cpse	r24, r1
     924:	16 c0       	rjmp	.+44     	; 0x952 <main+0x408>
				{
					part_B++;
     926:	80 91 ff 20 	lds	r24, 0x20FF
     92a:	8f 5f       	subi	r24, 0xFF	; 255
     92c:	80 93 ff 20 	sts	0x20FF, r24
					//LCD_cmd(0x01);
					gfx_mono_draw_string("Vote for part B",0, 0, &sysfont);
     930:	28 e2       	ldi	r18, 0x28	; 40
     932:	30 e2       	ldi	r19, 0x20	; 32
     934:	40 e0       	ldi	r20, 0x00	; 0
     936:	60 e0       	ldi	r22, 0x00	; 0
     938:	80 ed       	ldi	r24, 0xD0	; 208
     93a:	90 e2       	ldi	r25, 0x20	; 32
     93c:	50 d2       	rcall	.+1184   	; 0xdde <gfx_mono_draw_string>
     93e:	ef ef       	ldi	r30, 0xFF	; 255
     940:	f9 ef       	ldi	r31, 0xF9	; 249
     942:	20 e0       	ldi	r18, 0x00	; 0
     944:	e1 50       	subi	r30, 0x01	; 1
     946:	f0 40       	sbci	r31, 0x00	; 0
     948:	20 40       	sbci	r18, 0x00	; 0
     94a:	e1 f7       	brne	.-8      	; 0x944 <main+0x3fa>
     94c:	00 c0       	rjmp	.+0      	; 0x94e <main+0x404>
     94e:	00 00       	nop
     950:	12 ce       	rjmp	.-988    	; 0x576 <main+0x2c>
					_delay_ms(10);
					goto again;
					// goto again;
				}
				if(PORTA_IN==0x00) //sw3
     952:	88 81       	ld	r24, Y
     954:	81 11       	cpse	r24, r1
     956:	16 c0       	rjmp	.+44     	; 0x984 <main+0x43a>

				{
					part_C++;
     958:	80 91 fe 20 	lds	r24, 0x20FE
     95c:	8f 5f       	subi	r24, 0xFF	; 255
     95e:	80 93 fe 20 	sts	0x20FE, r24
					//LCD_cmd(0x01);
					gfx_mono_draw_string("voteforc",0, 0, &sysfont);
     962:	28 e2       	ldi	r18, 0x28	; 40
     964:	30 e2       	ldi	r19, 0x20	; 32
     966:	40 e0       	ldi	r20, 0x00	; 0
     968:	60 e0       	ldi	r22, 0x00	; 0
     96a:	80 ee       	ldi	r24, 0xE0	; 224
     96c:	90 e2       	ldi	r25, 0x20	; 32
     96e:	37 d2       	rcall	.+1134   	; 0xdde <gfx_mono_draw_string>
     970:	8f ef       	ldi	r24, 0xFF	; 255
     972:	99 ef       	ldi	r25, 0xF9	; 249
     974:	e0 e0       	ldi	r30, 0x00	; 0
     976:	81 50       	subi	r24, 0x01	; 1
     978:	90 40       	sbci	r25, 0x00	; 0
     97a:	e0 40       	sbci	r30, 0x00	; 0
     97c:	e1 f7       	brne	.-8      	; 0x976 <main+0x42c>
     97e:	00 c0       	rjmp	.+0      	; 0x980 <main+0x436>
     980:	00 00       	nop
     982:	f9 cd       	rjmp	.-1038   	; 0x576 <main+0x2c>
					_delay_ms(10);
					goto again;
					// goto again;259.
				}
				if(PORTA_IN==0x00)
     984:	88 81       	ld	r24, Y
     986:	81 11       	cpse	r24, r1
     988:	b2 cf       	rjmp	.-156    	; 0x8ee <main+0x3a4>
				{
					part_D++;
     98a:	80 91 fd 20 	lds	r24, 0x20FD
     98e:	8f 5f       	subi	r24, 0xFF	; 255
     990:	80 93 fd 20 	sts	0x20FD, r24
				//	LCD_cmd(0x01);
					gfx_mono_draw_string("Vote for part D",0, 0, &sysfont);
     994:	28 e2       	ldi	r18, 0x28	; 40
     996:	30 e2       	ldi	r19, 0x20	; 32
     998:	40 e0       	ldi	r20, 0x00	; 0
     99a:	60 e0       	ldi	r22, 0x00	; 0
     99c:	89 ee       	ldi	r24, 0xE9	; 233
     99e:	90 e2       	ldi	r25, 0x20	; 32
     9a0:	1e d2       	rcall	.+1084   	; 0xdde <gfx_mono_draw_string>
     9a2:	ff ef       	ldi	r31, 0xFF	; 255
     9a4:	29 ef       	ldi	r18, 0xF9	; 249
     9a6:	80 e0       	ldi	r24, 0x00	; 0
     9a8:	f1 50       	subi	r31, 0x01	; 1
     9aa:	20 40       	sbci	r18, 0x00	; 0
     9ac:	80 40       	sbci	r24, 0x00	; 0
     9ae:	e1 f7       	brne	.-8      	; 0x9a8 <main+0x45e>
     9b0:	00 c0       	rjmp	.+0      	; 0x9b2 <main+0x468>
     9b2:	00 00       	nop
     9b4:	e0 cd       	rjmp	.-1088   	; 0x576 <main+0x2c>
				gfx_mono_init();
				//LCD_cmd(0x01);
				gfx_mono_draw_string("Enrolling not ok",0, 0, &sysfont);
				goto again;
			}
			i=0;
     9b6:	10 92 07 21 	sts	0x2107, r1
			while(PORTA_IN==0x00);
			//LCD_cmd(0x01);
			gfx_mono_draw_string("Enrolling....",0, 0, &sysfont);
			_delay_ms(50);
			i=0;
			while(i<12)
     9ba:	e0 e0       	ldi	r30, 0x00	; 0
     9bc:	54 ce       	rjmp	.-856    	; 0x666 <main+0x11c>

000009be <gfx_mono_st7565r_put_byte>:
	gfx_mono_st7565r_put_byte(0, 0, 0xFF);
\endcode
 */
void gfx_mono_st7565r_put_byte(gfx_coord_t page, gfx_coord_t column,
		uint8_t data)
{
     9be:	1f 93       	push	r17
     9c0:	cf 93       	push	r28
     9c2:	df 93       	push	r29
     9c4:	18 2f       	mov	r17, r24
     9c6:	d6 2f       	mov	r29, r22
     9c8:	c4 2f       	mov	r28, r20
#ifdef CONFIG_ST7565R_FRAMEBUFFER
	gfx_mono_framebuffer_put_byte(page, column, data);
     9ca:	03 d1       	rcall	.+518    	; 0xbd2 <gfx_mono_framebuffer_put_byte>
 * \param address the page address
 */
static inline void st7565r_set_page_address(uint8_t address)
{
	// Make sure that the address is 4 bits (only 8 pages)
	address &= 0x0F;
     9cc:	1f 70       	andi	r17, 0x0F	; 15
	st7565r_write_command(ST7565R_CMD_PAGE_ADDRESS_SET(address));
     9ce:	10 6b       	ori	r17, 0xB0	; 176
 *
 * \param command the command to write
 */
static inline void st7565r_write_command(uint8_t command)
{
	ST7565R_CS_PORT.OUTCLR = ST7565R_CS_PIN;
     9d0:	88 e0       	ldi	r24, 0x08	; 8
     9d2:	e0 ea       	ldi	r30, 0xA0	; 160
     9d4:	f6 e0       	ldi	r31, 0x06	; 6
     9d6:	86 83       	std	Z+6, r24	; 0x06
	ST7565R_A0_PORT.OUTCLR = ST7565R_A0_PIN;
     9d8:	81 e0       	ldi	r24, 0x01	; 1
     9da:	e0 e6       	ldi	r30, 0x60	; 96
     9dc:	f6 e0       	ldi	r31, 0x06	; 6
     9de:	86 83       	std	Z+6, r24	; 0x06
	while(!(ST7565R_USART_SPI.STATUS & USART_DREIF_bm));
     9e0:	e0 ea       	ldi	r30, 0xA0	; 160
     9e2:	f9 e0       	ldi	r31, 0x09	; 9
     9e4:	91 81       	ldd	r25, Z+1	; 0x01
     9e6:	95 ff       	sbrs	r25, 5
     9e8:	fd cf       	rjmp	.-6      	; 0x9e4 <gfx_mono_st7565r_put_byte+0x26>
	ST7565R_USART_SPI.DATA = command;
     9ea:	10 93 a0 09 	sts	0x09A0, r17
	while(!(ST7565R_USART_SPI.STATUS & USART_TXCIF_bm));
     9ee:	e0 ea       	ldi	r30, 0xA0	; 160
     9f0:	f9 e0       	ldi	r31, 0x09	; 9
     9f2:	81 81       	ldd	r24, Z+1	; 0x01
     9f4:	86 ff       	sbrs	r24, 6
     9f6:	fd cf       	rjmp	.-6      	; 0x9f2 <gfx_mono_st7565r_put_byte+0x34>
	ST7565R_USART_SPI.STATUS |= USART_TXCIF_bm;
     9f8:	e0 ea       	ldi	r30, 0xA0	; 160
     9fa:	f9 e0       	ldi	r31, 0x09	; 9
     9fc:	81 81       	ldd	r24, Z+1	; 0x01
     9fe:	80 64       	ori	r24, 0x40	; 64
     a00:	81 83       	std	Z+1, r24	; 0x01
	temp = ST7565R_USART_SPI.DATA;
     a02:	80 81       	ld	r24, Z
     a04:	80 93 1e 23 	sts	0x231E, r24
	ST7565R_CS_PORT.OUTSET = ST7565R_CS_PIN;
     a08:	e0 ea       	ldi	r30, 0xA0	; 160
     a0a:	f6 e0       	ldi	r31, 0x06	; 6
     a0c:	88 e0       	ldi	r24, 0x08	; 8
     a0e:	85 83       	std	Z+5, r24	; 0x05
 * \param address the column address
 */
static inline void st7565r_set_column_address(uint8_t address)
{
	// Make sure the address is 7 bits
	address &= 0x7F;
     a10:	9d 2f       	mov	r25, r29
     a12:	9f 77       	andi	r25, 0x7F	; 127
	st7565r_write_command(ST7565R_CMD_COLUMN_ADDRESS_SET_MSB(address >> 4));
     a14:	92 95       	swap	r25
     a16:	9f 70       	andi	r25, 0x0F	; 15
     a18:	90 61       	ori	r25, 0x10	; 16
 *
 * \param command the command to write
 */
static inline void st7565r_write_command(uint8_t command)
{
	ST7565R_CS_PORT.OUTCLR = ST7565R_CS_PIN;
     a1a:	86 83       	std	Z+6, r24	; 0x06
	ST7565R_A0_PORT.OUTCLR = ST7565R_A0_PIN;
     a1c:	81 e0       	ldi	r24, 0x01	; 1
     a1e:	e0 e6       	ldi	r30, 0x60	; 96
     a20:	f6 e0       	ldi	r31, 0x06	; 6
     a22:	86 83       	std	Z+6, r24	; 0x06
	while(!(ST7565R_USART_SPI.STATUS & USART_DREIF_bm));
     a24:	e0 ea       	ldi	r30, 0xA0	; 160
     a26:	f9 e0       	ldi	r31, 0x09	; 9
     a28:	81 81       	ldd	r24, Z+1	; 0x01
     a2a:	85 ff       	sbrs	r24, 5
     a2c:	fd cf       	rjmp	.-6      	; 0xa28 <gfx_mono_st7565r_put_byte+0x6a>
	ST7565R_USART_SPI.DATA = command;
     a2e:	90 93 a0 09 	sts	0x09A0, r25
	while(!(ST7565R_USART_SPI.STATUS & USART_TXCIF_bm));
     a32:	e0 ea       	ldi	r30, 0xA0	; 160
     a34:	f9 e0       	ldi	r31, 0x09	; 9
     a36:	81 81       	ldd	r24, Z+1	; 0x01
     a38:	86 ff       	sbrs	r24, 6
     a3a:	fd cf       	rjmp	.-6      	; 0xa36 <gfx_mono_st7565r_put_byte+0x78>
	ST7565R_USART_SPI.STATUS |= USART_TXCIF_bm;
     a3c:	e0 ea       	ldi	r30, 0xA0	; 160
     a3e:	f9 e0       	ldi	r31, 0x09	; 9
     a40:	81 81       	ldd	r24, Z+1	; 0x01
     a42:	80 64       	ori	r24, 0x40	; 64
     a44:	81 83       	std	Z+1, r24	; 0x01
	temp = ST7565R_USART_SPI.DATA;
     a46:	80 81       	ld	r24, Z
     a48:	80 93 1e 23 	sts	0x231E, r24
	ST7565R_CS_PORT.OUTSET = ST7565R_CS_PIN;
     a4c:	e0 ea       	ldi	r30, 0xA0	; 160
     a4e:	f6 e0       	ldi	r31, 0x06	; 6
     a50:	88 e0       	ldi	r24, 0x08	; 8
     a52:	85 83       	std	Z+5, r24	; 0x05
static inline void st7565r_set_column_address(uint8_t address)
{
	// Make sure the address is 7 bits
	address &= 0x7F;
	st7565r_write_command(ST7565R_CMD_COLUMN_ADDRESS_SET_MSB(address >> 4));
	st7565r_write_command(ST7565R_CMD_COLUMN_ADDRESS_SET_LSB(address & 0x0F));
     a54:	df 70       	andi	r29, 0x0F	; 15
 *
 * \param command the command to write
 */
static inline void st7565r_write_command(uint8_t command)
{
	ST7565R_CS_PORT.OUTCLR = ST7565R_CS_PIN;
     a56:	86 83       	std	Z+6, r24	; 0x06
	ST7565R_A0_PORT.OUTCLR = ST7565R_A0_PIN;
     a58:	81 e0       	ldi	r24, 0x01	; 1
     a5a:	e0 e6       	ldi	r30, 0x60	; 96
     a5c:	f6 e0       	ldi	r31, 0x06	; 6
     a5e:	86 83       	std	Z+6, r24	; 0x06
	while(!(ST7565R_USART_SPI.STATUS & USART_DREIF_bm));
     a60:	e0 ea       	ldi	r30, 0xA0	; 160
     a62:	f9 e0       	ldi	r31, 0x09	; 9
     a64:	81 81       	ldd	r24, Z+1	; 0x01
     a66:	85 ff       	sbrs	r24, 5
     a68:	fd cf       	rjmp	.-6      	; 0xa64 <gfx_mono_st7565r_put_byte+0xa6>
	ST7565R_USART_SPI.DATA = command;
     a6a:	d0 93 a0 09 	sts	0x09A0, r29
	while(!(ST7565R_USART_SPI.STATUS & USART_TXCIF_bm));
     a6e:	e0 ea       	ldi	r30, 0xA0	; 160
     a70:	f9 e0       	ldi	r31, 0x09	; 9
     a72:	81 81       	ldd	r24, Z+1	; 0x01
     a74:	86 ff       	sbrs	r24, 6
     a76:	fd cf       	rjmp	.-6      	; 0xa72 <gfx_mono_st7565r_put_byte+0xb4>
	ST7565R_USART_SPI.STATUS |= USART_TXCIF_bm;
     a78:	e0 ea       	ldi	r30, 0xA0	; 160
     a7a:	f9 e0       	ldi	r31, 0x09	; 9
     a7c:	81 81       	ldd	r24, Z+1	; 0x01
     a7e:	80 64       	ori	r24, 0x40	; 64
     a80:	81 83       	std	Z+1, r24	; 0x01
	temp = ST7565R_USART_SPI.DATA;
     a82:	80 81       	ld	r24, Z
     a84:	80 93 1e 23 	sts	0x231E, r24
	ST7565R_CS_PORT.OUTSET = ST7565R_CS_PIN;
     a88:	e0 ea       	ldi	r30, 0xA0	; 160
     a8a:	f6 e0       	ldi	r31, 0x06	; 6
     a8c:	88 e0       	ldi	r24, 0x08	; 8
     a8e:	85 83       	std	Z+5, r24	; 0x05
 *
 * \param data the data to write
 */
static inline void st7565r_write_data(uint8_t data)
{
	ST7565R_CS_PORT.OUTCLR = ST7565R_CS_PIN;
     a90:	86 83       	std	Z+6, r24	; 0x06
	ST7565R_A0_PORT.OUTSET = ST7565R_A0_PIN;
     a92:	81 e0       	ldi	r24, 0x01	; 1
     a94:	e0 e6       	ldi	r30, 0x60	; 96
     a96:	f6 e0       	ldi	r31, 0x06	; 6
     a98:	85 83       	std	Z+5, r24	; 0x05
	while(!(ST7565R_USART_SPI.STATUS & USART_DREIF_bm));
     a9a:	e0 ea       	ldi	r30, 0xA0	; 160
     a9c:	f9 e0       	ldi	r31, 0x09	; 9
     a9e:	81 81       	ldd	r24, Z+1	; 0x01
     aa0:	85 ff       	sbrs	r24, 5
     aa2:	fd cf       	rjmp	.-6      	; 0xa9e <gfx_mono_st7565r_put_byte+0xe0>
	ST7565R_USART_SPI.DATA = data;
     aa4:	c0 93 a0 09 	sts	0x09A0, r28
	while(!(ST7565R_USART_SPI.STATUS & USART_TXCIF_bm));
     aa8:	e0 ea       	ldi	r30, 0xA0	; 160
     aaa:	f9 e0       	ldi	r31, 0x09	; 9
     aac:	81 81       	ldd	r24, Z+1	; 0x01
     aae:	86 ff       	sbrs	r24, 6
     ab0:	fd cf       	rjmp	.-6      	; 0xaac <gfx_mono_st7565r_put_byte+0xee>
	ST7565R_USART_SPI.STATUS |= USART_TXCIF_bm;
     ab2:	e0 ea       	ldi	r30, 0xA0	; 160
     ab4:	f9 e0       	ldi	r31, 0x09	; 9
     ab6:	81 81       	ldd	r24, Z+1	; 0x01
     ab8:	80 64       	ori	r24, 0x40	; 64
     aba:	81 83       	std	Z+1, r24	; 0x01
	temp = ST7565R_USART_SPI.DATA;
     abc:	80 81       	ld	r24, Z
     abe:	80 93 1e 23 	sts	0x231E, r24
	ST7565R_A0_PORT.OUTCLR = ST7565R_A0_PIN;
     ac2:	81 e0       	ldi	r24, 0x01	; 1
     ac4:	e0 e6       	ldi	r30, 0x60	; 96
     ac6:	f6 e0       	ldi	r31, 0x06	; 6
     ac8:	86 83       	std	Z+6, r24	; 0x06
	ST7565R_CS_PORT.OUTSET = ST7565R_CS_PIN;
     aca:	88 e0       	ldi	r24, 0x08	; 8
     acc:	e0 ea       	ldi	r30, 0xA0	; 160
     ace:	f6 e0       	ldi	r31, 0x06	; 6
     ad0:	85 83       	std	Z+5, r24	; 0x05

	st7565r_set_page_address(page);
	st7565r_set_column_address(column);

	st7565r_write_data(data);
}
     ad2:	df 91       	pop	r29
     ad4:	cf 91       	pop	r28
     ad6:	1f 91       	pop	r17
     ad8:	08 95       	ret

00000ada <gfx_mono_st7565r_init>:
 * It will also write the graphic controller RAM to all zeroes.
 *
 * \note This function will clear the contents of the display.
 */
void gfx_mono_st7565r_init(void)
{
     ada:	cf 93       	push	r28
     adc:	df 93       	push	r29
	uint8_t page;
	uint8_t column;

#ifdef CONFIG_ST7565R_FRAMEBUFFER
	gfx_mono_set_framebuffer(framebuffer);
     ade:	88 e0       	ldi	r24, 0x08	; 8
     ae0:	91 e2       	ldi	r25, 0x21	; 33
     ae2:	72 d0       	rcall	.+228    	; 0xbc8 <gfx_mono_set_framebuffer>
#endif

	/* Initialize the low-level display controller. */
	st7565r_init();
     ae4:	a5 d1       	rcall	.+842    	; 0xe30 <st7565r_init>
 *
 * \param command the command to write
 */
static inline void st7565r_write_command(uint8_t command)
{
	ST7565R_CS_PORT.OUTCLR = ST7565R_CS_PIN;
     ae6:	88 e0       	ldi	r24, 0x08	; 8
     ae8:	e0 ea       	ldi	r30, 0xA0	; 160
     aea:	f6 e0       	ldi	r31, 0x06	; 6
     aec:	86 83       	std	Z+6, r24	; 0x06
	ST7565R_A0_PORT.OUTCLR = ST7565R_A0_PIN;
     aee:	81 e0       	ldi	r24, 0x01	; 1
     af0:	e0 e6       	ldi	r30, 0x60	; 96
     af2:	f6 e0       	ldi	r31, 0x06	; 6
     af4:	86 83       	std	Z+6, r24	; 0x06
	while(!(ST7565R_USART_SPI.STATUS & USART_DREIF_bm));
     af6:	e0 ea       	ldi	r30, 0xA0	; 160
     af8:	f9 e0       	ldi	r31, 0x09	; 9
     afa:	81 81       	ldd	r24, Z+1	; 0x01
     afc:	85 ff       	sbrs	r24, 5
     afe:	fd cf       	rjmp	.-6      	; 0xafa <gfx_mono_st7565r_init+0x20>
	ST7565R_USART_SPI.DATA = command;
     b00:	80 e4       	ldi	r24, 0x40	; 64
     b02:	80 93 a0 09 	sts	0x09A0, r24
	while(!(ST7565R_USART_SPI.STATUS & USART_TXCIF_bm));
     b06:	e0 ea       	ldi	r30, 0xA0	; 160
     b08:	f9 e0       	ldi	r31, 0x09	; 9
     b0a:	81 81       	ldd	r24, Z+1	; 0x01
     b0c:	86 ff       	sbrs	r24, 6
     b0e:	fd cf       	rjmp	.-6      	; 0xb0a <gfx_mono_st7565r_init+0x30>
	ST7565R_USART_SPI.STATUS |= USART_TXCIF_bm;
     b10:	e0 ea       	ldi	r30, 0xA0	; 160
     b12:	f9 e0       	ldi	r31, 0x09	; 9
     b14:	81 81       	ldd	r24, Z+1	; 0x01
     b16:	80 64       	ori	r24, 0x40	; 64
     b18:	81 83       	std	Z+1, r24	; 0x01
	temp = ST7565R_USART_SPI.DATA;
     b1a:	80 81       	ld	r24, Z
     b1c:	80 93 1e 23 	sts	0x231E, r24
	ST7565R_CS_PORT.OUTSET = ST7565R_CS_PIN;
     b20:	88 e0       	ldi	r24, 0x08	; 8
     b22:	e0 ea       	ldi	r30, 0xA0	; 160
     b24:	f6 e0       	ldi	r31, 0x06	; 6
     b26:	85 83       	std	Z+5, r24	; 0x05

	/* Clear the contents of the display.
	 * If using a framebuffer (SPI interface) it will both clear the
	 * controller memory and the framebuffer.
	 */
	for (page = 0; page < GFX_MONO_LCD_PAGES; page++) {
     b28:	d0 e0       	ldi	r29, 0x00	; 0
     b2a:	0a c0       	rjmp	.+20     	; 0xb40 <gfx_mono_st7565r_init+0x66>
		for (column = 0; column < GFX_MONO_LCD_WIDTH; column++) {
			gfx_mono_put_byte(page, column, 0x00);
     b2c:	40 e0       	ldi	r20, 0x00	; 0
     b2e:	6c 2f       	mov	r22, r28
     b30:	8d 2f       	mov	r24, r29
     b32:	45 df       	rcall	.-374    	; 0x9be <gfx_mono_st7565r_put_byte>
	/* Clear the contents of the display.
	 * If using a framebuffer (SPI interface) it will both clear the
	 * controller memory and the framebuffer.
	 */
	for (page = 0; page < GFX_MONO_LCD_PAGES; page++) {
		for (column = 0; column < GFX_MONO_LCD_WIDTH; column++) {
     b34:	cf 5f       	subi	r28, 0xFF	; 255
     b36:	c0 38       	cpi	r28, 0x80	; 128
     b38:	c9 f7       	brne	.-14     	; 0xb2c <gfx_mono_st7565r_init+0x52>

	/* Clear the contents of the display.
	 * If using a framebuffer (SPI interface) it will both clear the
	 * controller memory and the framebuffer.
	 */
	for (page = 0; page < GFX_MONO_LCD_PAGES; page++) {
     b3a:	df 5f       	subi	r29, 0xFF	; 255
     b3c:	d4 30       	cpi	r29, 0x04	; 4
     b3e:	11 f0       	breq	.+4      	; 0xb44 <gfx_mono_st7565r_init+0x6a>
 * It will also write the graphic controller RAM to all zeroes.
 *
 * \note This function will clear the contents of the display.
 */
void gfx_mono_st7565r_init(void)
{
     b40:	c0 e0       	ldi	r28, 0x00	; 0
     b42:	f4 cf       	rjmp	.-24     	; 0xb2c <gfx_mono_st7565r_init+0x52>
	for (page = 0; page < GFX_MONO_LCD_PAGES; page++) {
		for (column = 0; column < GFX_MONO_LCD_WIDTH; column++) {
			gfx_mono_put_byte(page, column, 0x00);
		}
	}
}
     b44:	df 91       	pop	r29
     b46:	cf 91       	pop	r28
     b48:	08 95       	ret

00000b4a <gfx_mono_st7565r_draw_pixel>:
	gfx_mono_st7565r_draw_pixel(10, 10, GFX_PIXEL_XOR);
\endcode
 */
void gfx_mono_st7565r_draw_pixel(gfx_coord_t x, gfx_coord_t y,
		gfx_coord_t color)
{
     b4a:	ff 92       	push	r15
     b4c:	0f 93       	push	r16
     b4e:	1f 93       	push	r17
     b50:	cf 93       	push	r28
     b52:	df 93       	push	r29
     b54:	18 2f       	mov	r17, r24
     b56:	04 2f       	mov	r16, r20
	uint8_t page;
	uint8_t pixel_mask;
	uint8_t pixel_value;

	/* Discard pixels drawn outside the screen */
	if ((x > GFX_MONO_LCD_WIDTH - 1) || (y > GFX_MONO_LCD_HEIGHT - 1)) {
     b58:	88 23       	and	r24, r24
     b5a:	74 f1       	brlt	.+92     	; 0xbb8 <gfx_mono_st7565r_draw_pixel+0x6e>
     b5c:	60 32       	cpi	r22, 0x20	; 32
     b5e:	60 f5       	brcc	.+88     	; 0xbb8 <gfx_mono_st7565r_draw_pixel+0x6e>
		return;
	}

	page = y / GFX_MONO_LCD_PIXELS_PER_BYTE;
     b60:	f6 2e       	mov	r15, r22
     b62:	f6 94       	lsr	r15
     b64:	f6 94       	lsr	r15
     b66:	f6 94       	lsr	r15
	pixel_mask = (1 << (y - (page * 8)));
     b68:	2f 2d       	mov	r18, r15
     b6a:	30 e0       	ldi	r19, 0x00	; 0
     b6c:	31 95       	neg	r19
     b6e:	21 95       	neg	r18
     b70:	31 09       	sbc	r19, r1
     b72:	22 0f       	add	r18, r18
     b74:	33 1f       	adc	r19, r19
     b76:	22 0f       	add	r18, r18
     b78:	33 1f       	adc	r19, r19
     b7a:	22 0f       	add	r18, r18
     b7c:	33 1f       	adc	r19, r19
     b7e:	26 0f       	add	r18, r22
     b80:	31 1d       	adc	r19, r1
     b82:	e1 e0       	ldi	r30, 0x01	; 1
     b84:	f0 e0       	ldi	r31, 0x00	; 0
     b86:	ef 01       	movw	r28, r30
     b88:	02 c0       	rjmp	.+4      	; 0xb8e <gfx_mono_st7565r_draw_pixel+0x44>
     b8a:	cc 0f       	add	r28, r28
     b8c:	dd 1f       	adc	r29, r29
     b8e:	2a 95       	dec	r18
     b90:	e2 f7       	brpl	.-8      	; 0xb8a <gfx_mono_st7565r_draw_pixel+0x40>
\endcode
 */
uint8_t gfx_mono_st7565r_get_byte(gfx_coord_t page, gfx_coord_t column)
{
#ifdef CONFIG_ST7565R_FRAMEBUFFER
	return gfx_mono_framebuffer_get_byte(page, column);
     b92:	68 2f       	mov	r22, r24
     b94:	8f 2d       	mov	r24, r15
     b96:	2c d0       	rcall	.+88     	; 0xbf0 <gfx_mono_framebuffer_get_byte>
	 * requested action on this pixel before writing the page back to the
	 * display.
	 */
	pixel_value = gfx_mono_get_byte(page, x);

	switch (color) {
     b98:	01 30       	cpi	r16, 0x01	; 1
     b9a:	21 f0       	breq	.+8      	; 0xba4 <gfx_mono_st7565r_draw_pixel+0x5a>
     b9c:	28 f0       	brcs	.+10     	; 0xba8 <gfx_mono_st7565r_draw_pixel+0x5e>
     b9e:	02 30       	cpi	r16, 0x02	; 2
     ba0:	31 f0       	breq	.+12     	; 0xbae <gfx_mono_st7565r_draw_pixel+0x64>
     ba2:	06 c0       	rjmp	.+12     	; 0xbb0 <gfx_mono_st7565r_draw_pixel+0x66>
	case GFX_PIXEL_SET:
		pixel_value |= pixel_mask;
     ba4:	8c 2b       	or	r24, r28
		break;
     ba6:	04 c0       	rjmp	.+8      	; 0xbb0 <gfx_mono_st7565r_draw_pixel+0x66>

	case GFX_PIXEL_CLR:
		pixel_value &= ~pixel_mask;
     ba8:	c0 95       	com	r28
     baa:	8c 23       	and	r24, r28
		break;
     bac:	01 c0       	rjmp	.+2      	; 0xbb0 <gfx_mono_st7565r_draw_pixel+0x66>

	case GFX_PIXEL_XOR:
		pixel_value ^= pixel_mask;
     bae:	8c 27       	eor	r24, r28

	default:
		break;
	}

	gfx_mono_put_byte(page, x, pixel_value);
     bb0:	48 2f       	mov	r20, r24
     bb2:	61 2f       	mov	r22, r17
     bb4:	8f 2d       	mov	r24, r15
     bb6:	03 df       	rcall	.-506    	; 0x9be <gfx_mono_st7565r_put_byte>
}
     bb8:	df 91       	pop	r29
     bba:	cf 91       	pop	r28
     bbc:	1f 91       	pop	r17
     bbe:	0f 91       	pop	r16
     bc0:	ff 90       	pop	r15
     bc2:	08 95       	ret

00000bc4 <gfx_mono_st7565r_get_byte>:
\endcode
 */
uint8_t gfx_mono_st7565r_get_byte(gfx_coord_t page, gfx_coord_t column)
{
#ifdef CONFIG_ST7565R_FRAMEBUFFER
	return gfx_mono_framebuffer_get_byte(page, column);
     bc4:	15 c0       	rjmp	.+42     	; 0xbf0 <gfx_mono_framebuffer_get_byte>
	st7565r_set_column_address(column);

	return st7565r_read_data();

#endif
}
     bc6:	08 95       	ret

00000bc8 <gfx_mono_set_framebuffer>:
	gfx_coord_t *framebuffer_pt = fbpointer +
			((page * GFX_MONO_LCD_WIDTH) + column);
	do {
		*data++ = *framebuffer_pt++;
	} while (--width > 0);
}
     bc8:	80 93 08 23 	sts	0x2308, r24
     bcc:	90 93 09 23 	sts	0x2309, r25
     bd0:	08 95       	ret

00000bd2 <gfx_mono_framebuffer_put_byte>:
\endcode
 */
void gfx_mono_framebuffer_put_byte(gfx_coord_t page, gfx_coord_t column,
		uint8_t data)
{
	*(fbpointer + (page * GFX_MONO_LCD_WIDTH) + column) = data;
     bd2:	20 e8       	ldi	r18, 0x80	; 128
     bd4:	82 9f       	mul	r24, r18
     bd6:	c0 01       	movw	r24, r0
     bd8:	11 24       	eor	r1, r1
     bda:	fc 01       	movw	r30, r24
     bdc:	e6 0f       	add	r30, r22
     bde:	f1 1d       	adc	r31, r1
     be0:	80 91 08 23 	lds	r24, 0x2308
     be4:	90 91 09 23 	lds	r25, 0x2309
     be8:	e8 0f       	add	r30, r24
     bea:	f9 1f       	adc	r31, r25
     bec:	40 83       	st	Z, r20
     bee:	08 95       	ret

00000bf0 <gfx_mono_framebuffer_get_byte>:
	data = gfx_mono_framebuffer_get_byte(0, 0);
\endcode
 */
uint8_t gfx_mono_framebuffer_get_byte(gfx_coord_t page, gfx_coord_t column)
{
	return *(fbpointer + (page * GFX_MONO_LCD_WIDTH) + column);
     bf0:	20 e8       	ldi	r18, 0x80	; 128
     bf2:	82 9f       	mul	r24, r18
     bf4:	c0 01       	movw	r24, r0
     bf6:	11 24       	eor	r1, r1
     bf8:	fc 01       	movw	r30, r24
     bfa:	e6 0f       	add	r30, r22
     bfc:	f1 1d       	adc	r31, r1
     bfe:	80 91 08 23 	lds	r24, 0x2308
     c02:	90 91 09 23 	lds	r25, 0x2309
     c06:	e8 0f       	add	r30, r24
     c08:	f9 1f       	adc	r31, r25
}
     c0a:	80 81       	ld	r24, Z
     c0c:	08 95       	ret

00000c0e <gfx_mono_generic_draw_horizontal_line>:
	gfx_mono_draw_horizontal_line(x, y, width, color);
	gfx_mono_draw_horizontal_line(x, y + height - 1, width, color);

	gfx_mono_draw_vertical_line(x, y, height, color);
	gfx_mono_draw_vertical_line(x + width - 1, y, height, color);
}
     c0e:	ff 92       	push	r15
     c10:	0f 93       	push	r16
     c12:	1f 93       	push	r17
     c14:	cf 93       	push	r28
     c16:	df 93       	push	r29
     c18:	e4 2f       	mov	r30, r20
     c1a:	f0 e0       	ldi	r31, 0x00	; 0
     c1c:	e8 0f       	add	r30, r24
     c1e:	f1 1d       	adc	r31, r1
     c20:	e1 38       	cpi	r30, 0x81	; 129
     c22:	f1 05       	cpc	r31, r1
     c24:	14 f0       	brlt	.+4      	; 0xc2a <gfx_mono_generic_draw_horizontal_line+0x1c>
     c26:	40 e8       	ldi	r20, 0x80	; 128
     c28:	48 1b       	sub	r20, r24
     c2a:	44 23       	and	r20, r20
     c2c:	09 f4       	brne	.+2      	; 0xc30 <gfx_mono_generic_draw_horizontal_line+0x22>
     c2e:	59 c0       	rjmp	.+178    	; 0xce2 <gfx_mono_generic_draw_horizontal_line+0xd4>
     c30:	c6 2f       	mov	r28, r22
     c32:	c6 95       	lsr	r28
     c34:	c6 95       	lsr	r28
     c36:	c6 95       	lsr	r28
     c38:	ec 2f       	mov	r30, r28
     c3a:	f0 e0       	ldi	r31, 0x00	; 0
     c3c:	f1 95       	neg	r31
     c3e:	e1 95       	neg	r30
     c40:	f1 09       	sbc	r31, r1
     c42:	ee 0f       	add	r30, r30
     c44:	ff 1f       	adc	r31, r31
     c46:	ee 0f       	add	r30, r30
     c48:	ff 1f       	adc	r31, r31
     c4a:	ee 0f       	add	r30, r30
     c4c:	ff 1f       	adc	r31, r31
     c4e:	df 01       	movw	r26, r30
     c50:	a6 0f       	add	r26, r22
     c52:	b1 1d       	adc	r27, r1
     c54:	bd 01       	movw	r22, r26
     c56:	e1 e0       	ldi	r30, 0x01	; 1
     c58:	f0 e0       	ldi	r31, 0x00	; 0
     c5a:	df 01       	movw	r26, r30
     c5c:	02 c0       	rjmp	.+4      	; 0xc62 <gfx_mono_generic_draw_horizontal_line+0x54>
     c5e:	aa 0f       	add	r26, r26
     c60:	bb 1f       	adc	r27, r27
     c62:	6a 95       	dec	r22
     c64:	e2 f7       	brpl	.-8      	; 0xc5e <gfx_mono_generic_draw_horizontal_line+0x50>
     c66:	0a 2f       	mov	r16, r26
     c68:	21 30       	cpi	r18, 0x01	; 1
     c6a:	49 f0       	breq	.+18     	; 0xc7e <gfx_mono_generic_draw_horizontal_line+0x70>
     c6c:	68 f0       	brcs	.+26     	; 0xc88 <gfx_mono_generic_draw_horizontal_line+0x7a>
     c6e:	22 30       	cpi	r18, 0x02	; 2
     c70:	09 f0       	breq	.+2      	; 0xc74 <gfx_mono_generic_draw_horizontal_line+0x66>
     c72:	37 c0       	rjmp	.+110    	; 0xce2 <gfx_mono_generic_draw_horizontal_line+0xd4>
     c74:	d4 2f       	mov	r29, r20
     c76:	ff 24       	eor	r15, r15
     c78:	fa 94       	dec	r15
     c7a:	f8 0e       	add	r15, r24
     c7c:	26 c0       	rjmp	.+76     	; 0xcca <gfx_mono_generic_draw_horizontal_line+0xbc>
     c7e:	d4 2f       	mov	r29, r20
     c80:	ff 24       	eor	r15, r15
     c82:	fa 94       	dec	r15
     c84:	f8 0e       	add	r15, r24
     c86:	07 c0       	rjmp	.+14     	; 0xc96 <gfx_mono_generic_draw_horizontal_line+0x88>
     c88:	d4 2f       	mov	r29, r20
     c8a:	ff 24       	eor	r15, r15
     c8c:	fa 94       	dec	r15
     c8e:	f8 0e       	add	r15, r24
     c90:	0a 2f       	mov	r16, r26
     c92:	00 95       	com	r16
     c94:	0d c0       	rjmp	.+26     	; 0xcb0 <gfx_mono_generic_draw_horizontal_line+0xa2>
     c96:	1f 2d       	mov	r17, r15
     c98:	1d 0f       	add	r17, r29
     c9a:	61 2f       	mov	r22, r17
     c9c:	8c 2f       	mov	r24, r28
     c9e:	92 df       	rcall	.-220    	; 0xbc4 <gfx_mono_st7565r_get_byte>
     ca0:	48 2f       	mov	r20, r24
     ca2:	40 2b       	or	r20, r16
     ca4:	61 2f       	mov	r22, r17
     ca6:	8c 2f       	mov	r24, r28
     ca8:	8a de       	rcall	.-748    	; 0x9be <gfx_mono_st7565r_put_byte>
     caa:	d1 50       	subi	r29, 0x01	; 1
     cac:	a1 f7       	brne	.-24     	; 0xc96 <gfx_mono_generic_draw_horizontal_line+0x88>
     cae:	19 c0       	rjmp	.+50     	; 0xce2 <gfx_mono_generic_draw_horizontal_line+0xd4>
     cb0:	1f 2d       	mov	r17, r15
     cb2:	1d 0f       	add	r17, r29
     cb4:	61 2f       	mov	r22, r17
     cb6:	8c 2f       	mov	r24, r28
     cb8:	85 df       	rcall	.-246    	; 0xbc4 <gfx_mono_st7565r_get_byte>
     cba:	48 2f       	mov	r20, r24
     cbc:	40 23       	and	r20, r16
     cbe:	61 2f       	mov	r22, r17
     cc0:	8c 2f       	mov	r24, r28
     cc2:	7d de       	rcall	.-774    	; 0x9be <gfx_mono_st7565r_put_byte>
     cc4:	d1 50       	subi	r29, 0x01	; 1
     cc6:	a1 f7       	brne	.-24     	; 0xcb0 <gfx_mono_generic_draw_horizontal_line+0xa2>
     cc8:	0c c0       	rjmp	.+24     	; 0xce2 <gfx_mono_generic_draw_horizontal_line+0xd4>
     cca:	1f 2d       	mov	r17, r15
     ccc:	1d 0f       	add	r17, r29
     cce:	61 2f       	mov	r22, r17
     cd0:	8c 2f       	mov	r24, r28
     cd2:	78 df       	rcall	.-272    	; 0xbc4 <gfx_mono_st7565r_get_byte>
     cd4:	48 2f       	mov	r20, r24
     cd6:	40 27       	eor	r20, r16
     cd8:	61 2f       	mov	r22, r17
     cda:	8c 2f       	mov	r24, r28
     cdc:	70 de       	rcall	.-800    	; 0x9be <gfx_mono_st7565r_put_byte>
     cde:	d1 50       	subi	r29, 0x01	; 1
     ce0:	a1 f7       	brne	.-24     	; 0xcca <gfx_mono_generic_draw_horizontal_line+0xbc>
     ce2:	df 91       	pop	r29
     ce4:	cf 91       	pop	r28
     ce6:	1f 91       	pop	r17
     ce8:	0f 91       	pop	r16
     cea:	ff 90       	pop	r15
     cec:	08 95       	ret

00000cee <gfx_mono_generic_draw_filled_rect>:
 * \param  color       Pixel operation of the line
 */
void gfx_mono_generic_draw_filled_rect(gfx_coord_t x, gfx_coord_t y,
		gfx_coord_t width, gfx_coord_t height,
		enum gfx_mono_color color)
{
     cee:	ff 92       	push	r15
     cf0:	0f 93       	push	r16
     cf2:	1f 93       	push	r17
     cf4:	cf 93       	push	r28
     cf6:	df 93       	push	r29
     cf8:	d8 2f       	mov	r29, r24
     cfa:	14 2f       	mov	r17, r20
	if (height == 0) {
     cfc:	22 23       	and	r18, r18
     cfe:	61 f0       	breq	.+24     	; 0xd18 <gfx_mono_generic_draw_filled_rect+0x2a>
     d00:	c2 2f       	mov	r28, r18
     d02:	ff 24       	eor	r15, r15
     d04:	fa 94       	dec	r15
     d06:	f6 0e       	add	r15, r22
     d08:	6f 2d       	mov	r22, r15
     d0a:	6c 0f       	add	r22, r28
		/* Nothing to do. Move along. */
		return;
	}

	while (height-- > 0) {
		gfx_mono_draw_horizontal_line(x, y + height, width, color);
     d0c:	20 2f       	mov	r18, r16
     d0e:	41 2f       	mov	r20, r17
     d10:	8d 2f       	mov	r24, r29
     d12:	7d df       	rcall	.-262    	; 0xc0e <gfx_mono_generic_draw_horizontal_line>
     d14:	c1 50       	subi	r28, 0x01	; 1
	if (height == 0) {
		/* Nothing to do. Move along. */
		return;
	}

	while (height-- > 0) {
     d16:	c1 f7       	brne	.-16     	; 0xd08 <gfx_mono_generic_draw_filled_rect+0x1a>
		gfx_mono_draw_horizontal_line(x, y + height, width, color);
	}
}
     d18:	df 91       	pop	r29
     d1a:	cf 91       	pop	r28
     d1c:	1f 91       	pop	r17
     d1e:	0f 91       	pop	r16
     d20:	ff 90       	pop	r15
     d22:	08 95       	ret

00000d24 <gfx_mono_draw_char>:
 * \param y        Y coordinate on screen.
 * \param font     Font to draw character in
 */
void gfx_mono_draw_char(const char c, const gfx_coord_t x, const gfx_coord_t y,
		const struct font *font)
{
     d24:	af 92       	push	r10
     d26:	bf 92       	push	r11
     d28:	cf 92       	push	r12
     d2a:	df 92       	push	r13
     d2c:	ef 92       	push	r14
     d2e:	ff 92       	push	r15
     d30:	0f 93       	push	r16
     d32:	1f 93       	push	r17
     d34:	cf 93       	push	r28
     d36:	df 93       	push	r29
     d38:	c8 2f       	mov	r28, r24
     d3a:	d6 2e       	mov	r13, r22
     d3c:	a4 2e       	mov	r10, r20
     d3e:	79 01       	movw	r14, r18
	gfx_mono_draw_filled_rect(x, y, font->width, font->height,
     d40:	00 e0       	ldi	r16, 0x00	; 0
     d42:	f9 01       	movw	r30, r18
     d44:	24 81       	ldd	r18, Z+4	; 0x04
     d46:	43 81       	ldd	r20, Z+3	; 0x03
     d48:	6a 2d       	mov	r22, r10
     d4a:	8d 2d       	mov	r24, r13
     d4c:	d0 df       	rcall	.-96     	; 0xcee <gfx_mono_generic_draw_filled_rect>
			GFX_PIXEL_CLR);

	switch (font->type) {
     d4e:	f7 01       	movw	r30, r14
     d50:	90 81       	ld	r25, Z
     d52:	91 11       	cpse	r25, r1
     d54:	39 c0       	rjmp	.+114    	; 0xdc8 <gfx_mono_draw_char+0xa4>
	uint8_t i;

	gfx_coord_t inc_x = x;
	gfx_coord_t inc_y = y;

	char_row_size = font->width / CONFIG_FONT_PIXELS_PER_BYTE;
     d56:	83 81       	ldd	r24, Z+3	; 0x03
     d58:	a8 2f       	mov	r26, r24
     d5a:	a6 95       	lsr	r26
     d5c:	a6 95       	lsr	r26
     d5e:	a6 95       	lsr	r26
	if (font->width % CONFIG_FONT_PIXELS_PER_BYTE) {
     d60:	87 70       	andi	r24, 0x07	; 7
     d62:	09 f0       	breq	.+2      	; 0xd66 <gfx_mono_draw_char+0x42>
		char_row_size++;
     d64:	af 5f       	subi	r26, 0xFF	; 255
	}

	glyph_data_offset = char_row_size * font->height *
     d66:	f7 01       	movw	r30, r14
     d68:	c4 80       	ldd	r12, Z+4	; 0x04
     d6a:	ac 9d       	mul	r26, r12
     d6c:	d0 01       	movw	r26, r0
     d6e:	11 24       	eor	r1, r1
			((uint8_t)ch - font->first_char);
     d70:	ec 2f       	mov	r30, r28
     d72:	f0 e0       	ldi	r31, 0x00	; 0
     d74:	e7 01       	movw	r28, r14
     d76:	8d 81       	ldd	r24, Y+5	; 0x05
     d78:	e8 1b       	sub	r30, r24
     d7a:	f1 09       	sbc	r31, r1
	char_row_size = font->width / CONFIG_FONT_PIXELS_PER_BYTE;
	if (font->width % CONFIG_FONT_PIXELS_PER_BYTE) {
		char_row_size++;
	}

	glyph_data_offset = char_row_size * font->height *
     d7c:	ae 9f       	mul	r26, r30
     d7e:	90 01       	movw	r18, r0
     d80:	af 9f       	mul	r26, r31
     d82:	30 0d       	add	r19, r0
     d84:	be 9f       	mul	r27, r30
     d86:	30 0d       	add	r19, r0
     d88:	11 24       	eor	r1, r1
			((uint8_t)ch - font->first_char);
	glyph_data = font->data.progmem + glyph_data_offset;
     d8a:	09 80       	ldd	r0, Y+1	; 0x01
     d8c:	da 81       	ldd	r29, Y+2	; 0x02
     d8e:	c0 2d       	mov	r28, r0
     d90:	c2 0f       	add	r28, r18
     d92:	d3 1f       	adc	r29, r19
	rows_left = font->height;

	do {
		uint8_t glyph_byte = 0;
		uint8_t pixelsToDraw = font->width;
     d94:	f7 01       	movw	r30, r14
     d96:	b3 80       	ldd	r11, Z+3	; 0x03

		for (i = 0; i < pixelsToDraw; i++) {
     d98:	bb 20       	and	r11, r11
     d9a:	99 f0       	breq	.+38     	; 0xdc2 <gfx_mono_draw_char+0x9e>
			((uint8_t)ch - font->first_char);
	glyph_data = font->data.progmem + glyph_data_offset;
	rows_left = font->height;

	do {
		uint8_t glyph_byte = 0;
     d9c:	00 e0       	ldi	r16, 0x00	; 0
		uint8_t pixelsToDraw = font->width;

		for (i = 0; i < pixelsToDraw; i++) {
     d9e:	10 e0       	ldi	r17, 0x00	; 0
     da0:	81 2f       	mov	r24, r17
     da2:	8d 0d       	add	r24, r13
			if (i % CONFIG_FONT_PIXELS_PER_BYTE == 0) {
     da4:	91 2f       	mov	r25, r17
     da6:	97 70       	andi	r25, 0x07	; 7
     da8:	19 f4       	brne	.+6      	; 0xdb0 <gfx_mono_draw_char+0x8c>
				glyph_byte = PROGMEM_READ_BYTE(glyph_data);
     daa:	fe 01       	movw	r30, r28
     dac:	04 91       	lpm	r16, Z
				glyph_data++;
     dae:	21 96       	adiw	r28, 0x01	; 1
			}

			if ((glyph_byte & 0x80)) {
     db0:	00 23       	and	r16, r16
     db2:	1c f4       	brge	.+6      	; 0xdba <gfx_mono_draw_char+0x96>
				gfx_mono_draw_pixel(inc_x, inc_y,
     db4:	41 e0       	ldi	r20, 0x01	; 1
     db6:	6a 2d       	mov	r22, r10
     db8:	c8 de       	rcall	.-624    	; 0xb4a <gfx_mono_st7565r_draw_pixel>
						GFX_PIXEL_SET);
			}

			inc_x += 1;
			glyph_byte <<= 1;
     dba:	00 0f       	add	r16, r16

	do {
		uint8_t glyph_byte = 0;
		uint8_t pixelsToDraw = font->width;

		for (i = 0; i < pixelsToDraw; i++) {
     dbc:	1f 5f       	subi	r17, 0xFF	; 255
     dbe:	1b 11       	cpse	r17, r11
     dc0:	ef cf       	rjmp	.-34     	; 0xda0 <gfx_mono_draw_char+0x7c>

			inc_x += 1;
			glyph_byte <<= 1;
		}

		inc_y += 1;
     dc2:	a3 94       	inc	r10
		inc_x = x;
		rows_left--;
     dc4:	ca 94       	dec	r12
	} while (rows_left > 0);
     dc6:	31 f7       	brne	.-52     	; 0xd94 <gfx_mono_draw_char+0x70>
#endif
	default:
		/* Unsupported mode, call assert */
		break;
	}
}
     dc8:	df 91       	pop	r29
     dca:	cf 91       	pop	r28
     dcc:	1f 91       	pop	r17
     dce:	0f 91       	pop	r16
     dd0:	ff 90       	pop	r15
     dd2:	ef 90       	pop	r14
     dd4:	df 90       	pop	r13
     dd6:	cf 90       	pop	r12
     dd8:	bf 90       	pop	r11
     dda:	af 90       	pop	r10
     ddc:	08 95       	ret

00000dde <gfx_mono_draw_string>:
 * \param y         Y coordinate on screen.
 * \param font      Font to draw string in
 */
void gfx_mono_draw_string(const char *str, gfx_coord_t x, gfx_coord_t y,
		const struct font *font)
{
     dde:	df 92       	push	r13
     de0:	ef 92       	push	r14
     de2:	ff 92       	push	r15
     de4:	0f 93       	push	r16
     de6:	1f 93       	push	r17
     de8:	cf 93       	push	r28
     dea:	df 93       	push	r29
     dec:	e4 2e       	mov	r14, r20
     dee:	89 01       	movw	r16, r18
     df0:	ec 01       	movw	r28, r24
     df2:	f6 2e       	mov	r15, r22

	/* Draw characters until trailing null byte */
	do {
		/* Handle '\n' as newline, draw normal characters. */
		if (*str == '\n') {
			x = start_of_string_position_x;
     df4:	d6 2e       	mov	r13, r22
	const gfx_coord_t start_of_string_position_x = x;

	/* Draw characters until trailing null byte */
	do {
		/* Handle '\n' as newline, draw normal characters. */
		if (*str == '\n') {
     df6:	89 91       	ld	r24, Y+
     df8:	8a 30       	cpi	r24, 0x0A	; 10
     dfa:	31 f4       	brne	.+12     	; 0xe08 <gfx_mono_draw_string+0x2a>
			x = start_of_string_position_x;
			y += font->height + 1;
     dfc:	f8 01       	movw	r30, r16
     dfe:	84 81       	ldd	r24, Z+4	; 0x04
     e00:	8f 5f       	subi	r24, 0xFF	; 255
     e02:	e8 0e       	add	r14, r24

	/* Draw characters until trailing null byte */
	do {
		/* Handle '\n' as newline, draw normal characters. */
		if (*str == '\n') {
			x = start_of_string_position_x;
     e04:	fd 2c       	mov	r15, r13
     e06:	09 c0       	rjmp	.+18     	; 0xe1a <gfx_mono_draw_string+0x3c>
			y += font->height + 1;
		} else if (*str == '\r') {
     e08:	8d 30       	cpi	r24, 0x0D	; 13
     e0a:	39 f0       	breq	.+14     	; 0xe1a <gfx_mono_draw_string+0x3c>
			/* Skip '\r' characters. */
		} else {
			gfx_mono_draw_char(*str, x, y, font);
     e0c:	98 01       	movw	r18, r16
     e0e:	4e 2d       	mov	r20, r14
     e10:	6f 2d       	mov	r22, r15
     e12:	88 df       	rcall	.-240    	; 0xd24 <gfx_mono_draw_char>
			x += font->width;
     e14:	f8 01       	movw	r30, r16
     e16:	83 81       	ldd	r24, Z+3	; 0x03
     e18:	f8 0e       	add	r15, r24
		}
	} while (*(++str));
     e1a:	88 81       	ld	r24, Y
     e1c:	81 11       	cpse	r24, r1
     e1e:	eb cf       	rjmp	.-42     	; 0xdf6 <gfx_mono_draw_string+0x18>
}
     e20:	df 91       	pop	r29
     e22:	cf 91       	pop	r28
     e24:	1f 91       	pop	r17
     e26:	0f 91       	pop	r16
     e28:	ff 90       	pop	r15
     e2a:	ef 90       	pop	r14
     e2c:	df 90       	pop	r13
     e2e:	08 95       	ret

00000e30 <st7565r_init>:
 * Call this function to initialize the hardware interface and the LCD
 * controller. When initialization is done the display is turned on and ready
 * to receive data.
 */
void st7565r_init(void)
{
     e30:	cf 93       	push	r28
     e32:	df 93       	push	r29
 * \note this functions should not be confused with the \ref st7565r_soft_reset()
 * function, this command will control the RST pin.
 */
static inline void st7565r_hard_reset(void)
{
	ST7565R_RESET_PORT.OUTCLR = ST7565R_RESET_PIN;
     e34:	88 e0       	ldi	r24, 0x08	; 8
     e36:	e0 e0       	ldi	r30, 0x00	; 0
     e38:	f6 e0       	ldi	r31, 0x06	; 6
     e3a:	86 83       	std	Z+6, r24	; 0x06
	#else
		//round up by default
		__ticks_dc = (uint32_t)(ceil(fabs(__tmp)));
	#endif

	__builtin_avr_delay_cycles(__ticks_dc);
     e3c:	8a e6       	ldi	r24, 0x6A	; 106
     e3e:	8a 95       	dec	r24
     e40:	f1 f7       	brne	.-4      	; 0xe3e <st7565r_init+0xe>
     e42:	00 c0       	rjmp	.+0      	; 0xe44 <st7565r_init+0x14>
	_delay_us(10);
	ST7565R_RESET_PORT.OUTSET = ST7565R_RESET_PIN;
     e44:	88 e0       	ldi	r24, 0x08	; 8
     e46:	85 83       	std	Z+5, r24	; 0x05
     e48:	ca e6       	ldi	r28, 0x6A	; 106
     e4a:	ca 95       	dec	r28
     e4c:	f1 f7       	brne	.-4      	; 0xe4a <st7565r_init+0x1a>
     e4e:	00 c0       	rjmp	.+0      	; 0xe50 <st7565r_init+0x20>
 * Depending on what interface used for interfacing the LCD controller this
 * function will initialize the necessary hardware.
 */
static void st7565r_interface_init(void)
{
	ST7565R_MOSI_PORT.DIRSET = ST7565R_MOSI_PIN | ST7565R_SCK_PIN | ST7565R_A0_PIN;
     e50:	e0 e6       	ldi	r30, 0x60	; 96
     e52:	f6 e0       	ldi	r31, 0x06	; 6
     e54:	3b e0       	ldi	r19, 0x0B	; 11
     e56:	31 83       	std	Z+1, r19	; 0x01
	ST7565R_CS_PORT.DIRSET = ST7565R_CS_PIN;
     e58:	a0 ea       	ldi	r26, 0xA0	; 160
     e5a:	b6 e0       	ldi	r27, 0x06	; 6
     e5c:	28 e0       	ldi	r18, 0x08	; 8
     e5e:	11 96       	adiw	r26, 0x01	; 1
     e60:	2c 93       	st	X, r18
     e62:	11 97       	sbiw	r26, 0x01	; 1
	ST7565R_RESET_PORT.DIRSET = ST7565R_RESET_PIN;
     e64:	60 e0       	ldi	r22, 0x00	; 0
     e66:	76 e0       	ldi	r23, 0x06	; 6
     e68:	eb 01       	movw	r28, r22
     e6a:	29 83       	std	Y+1, r18	; 0x01
	ST7565R_BACKLIGHT_PORT.DIRSET = ST7565R_BACKLIGHT_PIN;
     e6c:	40 e1       	ldi	r20, 0x10	; 16
     e6e:	80 e8       	ldi	r24, 0x80	; 128
     e70:	96 e0       	ldi	r25, 0x06	; 6
     e72:	ec 01       	movw	r28, r24
     e74:	49 83       	std	Y+1, r20	; 0x01
	ST7565R_MOSI_PORT.OUTSET = ST7565R_MOSI_PIN | ST7565R_SCK_PIN | ST7565R_A0_PIN;
     e76:	35 83       	std	Z+5, r19	; 0x05
	ST7565R_CS_PORT.OUTSET = ST7565R_CS_PIN;
     e78:	15 96       	adiw	r26, 0x05	; 5
     e7a:	2c 93       	st	X, r18
     e7c:	15 97       	sbiw	r26, 0x05	; 5
	ST7565R_RESET_PORT.OUTSET = ST7565R_RESET_PIN;
     e7e:	eb 01       	movw	r28, r22
     e80:	2d 83       	std	Y+5, r18	; 0x05
	
	ST7565R_USART_SPI.CTRLB = USART_RXEN_bm | USART_TXEN_bm;
     e82:	c0 ea       	ldi	r28, 0xA0	; 160
     e84:	d9 e0       	ldi	r29, 0x09	; 9
     e86:	88 e1       	ldi	r24, 0x18	; 24
     e88:	8c 83       	std	Y+4, r24	; 0x04
	ST7565R_USART_SPI.CTRLC |= USART_CMODE_MSPI_gc;
     e8a:	8d 81       	ldd	r24, Y+5	; 0x05
     e8c:	80 6c       	ori	r24, 0xC0	; 192
     e8e:	8d 83       	std	Y+5, r24	; 0x05
	// Initialize the interface
	st7565r_interface_init();

	// Set the A0 pin to the default state (command)
	//ioport_set_pin_low(ST7565R_A0_PIN);
	ST7565R_A0_PORT.OUTCLR = ST7565R_A0_PIN;
     e90:	81 e0       	ldi	r24, 0x01	; 1
     e92:	86 83       	std	Z+6, r24	; 0x06
 *
 * \param command the command to write
 */
static inline void st7565r_write_command(uint8_t command)
{
	ST7565R_CS_PORT.OUTCLR = ST7565R_CS_PIN;
     e94:	16 96       	adiw	r26, 0x06	; 6
     e96:	2c 93       	st	X, r18
	ST7565R_A0_PORT.OUTCLR = ST7565R_A0_PIN;
     e98:	86 83       	std	Z+6, r24	; 0x06
	while(!(ST7565R_USART_SPI.STATUS & USART_DREIF_bm));
     e9a:	e0 ea       	ldi	r30, 0xA0	; 160
     e9c:	f9 e0       	ldi	r31, 0x09	; 9
     e9e:	81 81       	ldd	r24, Z+1	; 0x01
     ea0:	85 ff       	sbrs	r24, 5
     ea2:	fd cf       	rjmp	.-6      	; 0xe9e <st7565r_init+0x6e>
	ST7565R_USART_SPI.DATA = command;
     ea4:	80 ea       	ldi	r24, 0xA0	; 160
     ea6:	80 93 a0 09 	sts	0x09A0, r24
	while(!(ST7565R_USART_SPI.STATUS & USART_TXCIF_bm));
     eaa:	e0 ea       	ldi	r30, 0xA0	; 160
     eac:	f9 e0       	ldi	r31, 0x09	; 9
     eae:	81 81       	ldd	r24, Z+1	; 0x01
     eb0:	86 ff       	sbrs	r24, 6
     eb2:	fd cf       	rjmp	.-6      	; 0xeae <st7565r_init+0x7e>
	ST7565R_USART_SPI.STATUS |= USART_TXCIF_bm;
     eb4:	e0 ea       	ldi	r30, 0xA0	; 160
     eb6:	f9 e0       	ldi	r31, 0x09	; 9
     eb8:	81 81       	ldd	r24, Z+1	; 0x01
     eba:	80 64       	ori	r24, 0x40	; 64
     ebc:	81 83       	std	Z+1, r24	; 0x01
	temp = ST7565R_USART_SPI.DATA;
     ebe:	80 81       	ld	r24, Z
     ec0:	80 93 1e 23 	sts	0x231E, r24
	ST7565R_CS_PORT.OUTSET = ST7565R_CS_PIN;
     ec4:	e0 ea       	ldi	r30, 0xA0	; 160
     ec6:	f6 e0       	ldi	r31, 0x06	; 6
     ec8:	88 e0       	ldi	r24, 0x08	; 8
     eca:	85 83       	std	Z+5, r24	; 0x05
 *
 * \param command the command to write
 */
static inline void st7565r_write_command(uint8_t command)
{
	ST7565R_CS_PORT.OUTCLR = ST7565R_CS_PIN;
     ecc:	86 83       	std	Z+6, r24	; 0x06
	ST7565R_A0_PORT.OUTCLR = ST7565R_A0_PIN;
     ece:	81 e0       	ldi	r24, 0x01	; 1
     ed0:	e0 e6       	ldi	r30, 0x60	; 96
     ed2:	f6 e0       	ldi	r31, 0x06	; 6
     ed4:	86 83       	std	Z+6, r24	; 0x06
	while(!(ST7565R_USART_SPI.STATUS & USART_DREIF_bm));
     ed6:	e0 ea       	ldi	r30, 0xA0	; 160
     ed8:	f9 e0       	ldi	r31, 0x09	; 9
     eda:	81 81       	ldd	r24, Z+1	; 0x01
     edc:	85 ff       	sbrs	r24, 5
     ede:	fd cf       	rjmp	.-6      	; 0xeda <st7565r_init+0xaa>
	ST7565R_USART_SPI.DATA = command;
     ee0:	86 ea       	ldi	r24, 0xA6	; 166
     ee2:	80 93 a0 09 	sts	0x09A0, r24
	while(!(ST7565R_USART_SPI.STATUS & USART_TXCIF_bm));
     ee6:	e0 ea       	ldi	r30, 0xA0	; 160
     ee8:	f9 e0       	ldi	r31, 0x09	; 9
     eea:	81 81       	ldd	r24, Z+1	; 0x01
     eec:	86 ff       	sbrs	r24, 6
     eee:	fd cf       	rjmp	.-6      	; 0xeea <st7565r_init+0xba>
	ST7565R_USART_SPI.STATUS |= USART_TXCIF_bm;
     ef0:	e0 ea       	ldi	r30, 0xA0	; 160
     ef2:	f9 e0       	ldi	r31, 0x09	; 9
     ef4:	81 81       	ldd	r24, Z+1	; 0x01
     ef6:	80 64       	ori	r24, 0x40	; 64
     ef8:	81 83       	std	Z+1, r24	; 0x01
	temp = ST7565R_USART_SPI.DATA;
     efa:	80 81       	ld	r24, Z
     efc:	80 93 1e 23 	sts	0x231E, r24
	ST7565R_CS_PORT.OUTSET = ST7565R_CS_PIN;
     f00:	e0 ea       	ldi	r30, 0xA0	; 160
     f02:	f6 e0       	ldi	r31, 0x06	; 6
     f04:	88 e0       	ldi	r24, 0x08	; 8
     f06:	85 83       	std	Z+5, r24	; 0x05
 *
 * \param command the command to write
 */
static inline void st7565r_write_command(uint8_t command)
{
	ST7565R_CS_PORT.OUTCLR = ST7565R_CS_PIN;
     f08:	86 83       	std	Z+6, r24	; 0x06
	ST7565R_A0_PORT.OUTCLR = ST7565R_A0_PIN;
     f0a:	81 e0       	ldi	r24, 0x01	; 1
     f0c:	e0 e6       	ldi	r30, 0x60	; 96
     f0e:	f6 e0       	ldi	r31, 0x06	; 6
     f10:	86 83       	std	Z+6, r24	; 0x06
	while(!(ST7565R_USART_SPI.STATUS & USART_DREIF_bm));
     f12:	e0 ea       	ldi	r30, 0xA0	; 160
     f14:	f9 e0       	ldi	r31, 0x09	; 9
     f16:	81 81       	ldd	r24, Z+1	; 0x01
     f18:	85 ff       	sbrs	r24, 5
     f1a:	fd cf       	rjmp	.-6      	; 0xf16 <st7565r_init+0xe6>
	ST7565R_USART_SPI.DATA = command;
     f1c:	88 ec       	ldi	r24, 0xC8	; 200
     f1e:	80 93 a0 09 	sts	0x09A0, r24
	while(!(ST7565R_USART_SPI.STATUS & USART_TXCIF_bm));
     f22:	e0 ea       	ldi	r30, 0xA0	; 160
     f24:	f9 e0       	ldi	r31, 0x09	; 9
     f26:	81 81       	ldd	r24, Z+1	; 0x01
     f28:	86 ff       	sbrs	r24, 6
     f2a:	fd cf       	rjmp	.-6      	; 0xf26 <st7565r_init+0xf6>
	ST7565R_USART_SPI.STATUS |= USART_TXCIF_bm;
     f2c:	e0 ea       	ldi	r30, 0xA0	; 160
     f2e:	f9 e0       	ldi	r31, 0x09	; 9
     f30:	81 81       	ldd	r24, Z+1	; 0x01
     f32:	80 64       	ori	r24, 0x40	; 64
     f34:	81 83       	std	Z+1, r24	; 0x01
	temp = ST7565R_USART_SPI.DATA;
     f36:	80 81       	ld	r24, Z
     f38:	80 93 1e 23 	sts	0x231E, r24
	ST7565R_CS_PORT.OUTSET = ST7565R_CS_PIN;
     f3c:	e0 ea       	ldi	r30, 0xA0	; 160
     f3e:	f6 e0       	ldi	r31, 0x06	; 6
     f40:	88 e0       	ldi	r24, 0x08	; 8
     f42:	85 83       	std	Z+5, r24	; 0x05
 *
 * \param command the command to write
 */
static inline void st7565r_write_command(uint8_t command)
{
	ST7565R_CS_PORT.OUTCLR = ST7565R_CS_PIN;
     f44:	86 83       	std	Z+6, r24	; 0x06
	ST7565R_A0_PORT.OUTCLR = ST7565R_A0_PIN;
     f46:	81 e0       	ldi	r24, 0x01	; 1
     f48:	e0 e6       	ldi	r30, 0x60	; 96
     f4a:	f6 e0       	ldi	r31, 0x06	; 6
     f4c:	86 83       	std	Z+6, r24	; 0x06
	while(!(ST7565R_USART_SPI.STATUS & USART_DREIF_bm));
     f4e:	e0 ea       	ldi	r30, 0xA0	; 160
     f50:	f9 e0       	ldi	r31, 0x09	; 9
     f52:	81 81       	ldd	r24, Z+1	; 0x01
     f54:	85 ff       	sbrs	r24, 5
     f56:	fd cf       	rjmp	.-6      	; 0xf52 <st7565r_init+0x122>
	ST7565R_USART_SPI.DATA = command;
     f58:	82 ea       	ldi	r24, 0xA2	; 162
     f5a:	80 93 a0 09 	sts	0x09A0, r24
	while(!(ST7565R_USART_SPI.STATUS & USART_TXCIF_bm));
     f5e:	e0 ea       	ldi	r30, 0xA0	; 160
     f60:	f9 e0       	ldi	r31, 0x09	; 9
     f62:	81 81       	ldd	r24, Z+1	; 0x01
     f64:	86 ff       	sbrs	r24, 6
     f66:	fd cf       	rjmp	.-6      	; 0xf62 <st7565r_init+0x132>
	ST7565R_USART_SPI.STATUS |= USART_TXCIF_bm;
     f68:	e0 ea       	ldi	r30, 0xA0	; 160
     f6a:	f9 e0       	ldi	r31, 0x09	; 9
     f6c:	81 81       	ldd	r24, Z+1	; 0x01
     f6e:	80 64       	ori	r24, 0x40	; 64
     f70:	81 83       	std	Z+1, r24	; 0x01
	temp = ST7565R_USART_SPI.DATA;
     f72:	80 81       	ld	r24, Z
     f74:	80 93 1e 23 	sts	0x231E, r24
	ST7565R_CS_PORT.OUTSET = ST7565R_CS_PIN;
     f78:	e0 ea       	ldi	r30, 0xA0	; 160
     f7a:	f6 e0       	ldi	r31, 0x06	; 6
     f7c:	88 e0       	ldi	r24, 0x08	; 8
     f7e:	85 83       	std	Z+5, r24	; 0x05
 *
 * \param command the command to write
 */
static inline void st7565r_write_command(uint8_t command)
{
	ST7565R_CS_PORT.OUTCLR = ST7565R_CS_PIN;
     f80:	86 83       	std	Z+6, r24	; 0x06
	ST7565R_A0_PORT.OUTCLR = ST7565R_A0_PIN;
     f82:	81 e0       	ldi	r24, 0x01	; 1
     f84:	e0 e6       	ldi	r30, 0x60	; 96
     f86:	f6 e0       	ldi	r31, 0x06	; 6
     f88:	86 83       	std	Z+6, r24	; 0x06
	while(!(ST7565R_USART_SPI.STATUS & USART_DREIF_bm));
     f8a:	e0 ea       	ldi	r30, 0xA0	; 160
     f8c:	f9 e0       	ldi	r31, 0x09	; 9
     f8e:	81 81       	ldd	r24, Z+1	; 0x01
     f90:	85 ff       	sbrs	r24, 5
     f92:	fd cf       	rjmp	.-6      	; 0xf8e <st7565r_init+0x15e>
	ST7565R_USART_SPI.DATA = command;
     f94:	8f e2       	ldi	r24, 0x2F	; 47
     f96:	80 93 a0 09 	sts	0x09A0, r24
	while(!(ST7565R_USART_SPI.STATUS & USART_TXCIF_bm));
     f9a:	e0 ea       	ldi	r30, 0xA0	; 160
     f9c:	f9 e0       	ldi	r31, 0x09	; 9
     f9e:	81 81       	ldd	r24, Z+1	; 0x01
     fa0:	86 ff       	sbrs	r24, 6
     fa2:	fd cf       	rjmp	.-6      	; 0xf9e <st7565r_init+0x16e>
	ST7565R_USART_SPI.STATUS |= USART_TXCIF_bm;
     fa4:	e0 ea       	ldi	r30, 0xA0	; 160
     fa6:	f9 e0       	ldi	r31, 0x09	; 9
     fa8:	81 81       	ldd	r24, Z+1	; 0x01
     faa:	80 64       	ori	r24, 0x40	; 64
     fac:	81 83       	std	Z+1, r24	; 0x01
	temp = ST7565R_USART_SPI.DATA;
     fae:	80 81       	ld	r24, Z
     fb0:	80 93 1e 23 	sts	0x231E, r24
	ST7565R_CS_PORT.OUTSET = ST7565R_CS_PIN;
     fb4:	e0 ea       	ldi	r30, 0xA0	; 160
     fb6:	f6 e0       	ldi	r31, 0x06	; 6
     fb8:	88 e0       	ldi	r24, 0x08	; 8
     fba:	85 83       	std	Z+5, r24	; 0x05
 *
 * \param command the command to write
 */
static inline void st7565r_write_command(uint8_t command)
{
	ST7565R_CS_PORT.OUTCLR = ST7565R_CS_PIN;
     fbc:	86 83       	std	Z+6, r24	; 0x06
	ST7565R_A0_PORT.OUTCLR = ST7565R_A0_PIN;
     fbe:	81 e0       	ldi	r24, 0x01	; 1
     fc0:	e0 e6       	ldi	r30, 0x60	; 96
     fc2:	f6 e0       	ldi	r31, 0x06	; 6
     fc4:	86 83       	std	Z+6, r24	; 0x06
	while(!(ST7565R_USART_SPI.STATUS & USART_DREIF_bm));
     fc6:	e0 ea       	ldi	r30, 0xA0	; 160
     fc8:	f9 e0       	ldi	r31, 0x09	; 9
     fca:	81 81       	ldd	r24, Z+1	; 0x01
     fcc:	85 ff       	sbrs	r24, 5
     fce:	fd cf       	rjmp	.-6      	; 0xfca <st7565r_init+0x19a>
	ST7565R_USART_SPI.DATA = command;
     fd0:	88 ef       	ldi	r24, 0xF8	; 248
     fd2:	80 93 a0 09 	sts	0x09A0, r24
	while(!(ST7565R_USART_SPI.STATUS & USART_TXCIF_bm));
     fd6:	e0 ea       	ldi	r30, 0xA0	; 160
     fd8:	f9 e0       	ldi	r31, 0x09	; 9
     fda:	81 81       	ldd	r24, Z+1	; 0x01
     fdc:	86 ff       	sbrs	r24, 6
     fde:	fd cf       	rjmp	.-6      	; 0xfda <st7565r_init+0x1aa>
	ST7565R_USART_SPI.STATUS |= USART_TXCIF_bm;
     fe0:	e0 ea       	ldi	r30, 0xA0	; 160
     fe2:	f9 e0       	ldi	r31, 0x09	; 9
     fe4:	81 81       	ldd	r24, Z+1	; 0x01
     fe6:	80 64       	ori	r24, 0x40	; 64
     fe8:	81 83       	std	Z+1, r24	; 0x01
	temp = ST7565R_USART_SPI.DATA;
     fea:	80 81       	ld	r24, Z
     fec:	80 93 1e 23 	sts	0x231E, r24
	ST7565R_CS_PORT.OUTSET = ST7565R_CS_PIN;
     ff0:	e0 ea       	ldi	r30, 0xA0	; 160
     ff2:	f6 e0       	ldi	r31, 0x06	; 6
     ff4:	88 e0       	ldi	r24, 0x08	; 8
     ff6:	85 83       	std	Z+5, r24	; 0x05
 *
 * \param command the command to write
 */
static inline void st7565r_write_command(uint8_t command)
{
	ST7565R_CS_PORT.OUTCLR = ST7565R_CS_PIN;
     ff8:	86 83       	std	Z+6, r24	; 0x06
	ST7565R_A0_PORT.OUTCLR = ST7565R_A0_PIN;
     ffa:	81 e0       	ldi	r24, 0x01	; 1
     ffc:	e0 e6       	ldi	r30, 0x60	; 96
     ffe:	f6 e0       	ldi	r31, 0x06	; 6
    1000:	86 83       	std	Z+6, r24	; 0x06
	while(!(ST7565R_USART_SPI.STATUS & USART_DREIF_bm));
    1002:	e0 ea       	ldi	r30, 0xA0	; 160
    1004:	f9 e0       	ldi	r31, 0x09	; 9
    1006:	81 81       	ldd	r24, Z+1	; 0x01
    1008:	85 ff       	sbrs	r24, 5
    100a:	fd cf       	rjmp	.-6      	; 0x1006 <st7565r_init+0x1d6>
	ST7565R_USART_SPI.DATA = command;
    100c:	10 92 a0 09 	sts	0x09A0, r1
	while(!(ST7565R_USART_SPI.STATUS & USART_TXCIF_bm));
    1010:	e0 ea       	ldi	r30, 0xA0	; 160
    1012:	f9 e0       	ldi	r31, 0x09	; 9
    1014:	81 81       	ldd	r24, Z+1	; 0x01
    1016:	86 ff       	sbrs	r24, 6
    1018:	fd cf       	rjmp	.-6      	; 0x1014 <st7565r_init+0x1e4>
	ST7565R_USART_SPI.STATUS |= USART_TXCIF_bm;
    101a:	e0 ea       	ldi	r30, 0xA0	; 160
    101c:	f9 e0       	ldi	r31, 0x09	; 9
    101e:	81 81       	ldd	r24, Z+1	; 0x01
    1020:	80 64       	ori	r24, 0x40	; 64
    1022:	81 83       	std	Z+1, r24	; 0x01
	temp = ST7565R_USART_SPI.DATA;
    1024:	80 81       	ld	r24, Z
    1026:	80 93 1e 23 	sts	0x231E, r24
	ST7565R_CS_PORT.OUTSET = ST7565R_CS_PIN;
    102a:	e0 ea       	ldi	r30, 0xA0	; 160
    102c:	f6 e0       	ldi	r31, 0x06	; 6
    102e:	88 e0       	ldi	r24, 0x08	; 8
    1030:	85 83       	std	Z+5, r24	; 0x05
 *
 * \param command the command to write
 */
static inline void st7565r_write_command(uint8_t command)
{
	ST7565R_CS_PORT.OUTCLR = ST7565R_CS_PIN;
    1032:	86 83       	std	Z+6, r24	; 0x06
	ST7565R_A0_PORT.OUTCLR = ST7565R_A0_PIN;
    1034:	81 e0       	ldi	r24, 0x01	; 1
    1036:	e0 e6       	ldi	r30, 0x60	; 96
    1038:	f6 e0       	ldi	r31, 0x06	; 6
    103a:	86 83       	std	Z+6, r24	; 0x06
	while(!(ST7565R_USART_SPI.STATUS & USART_DREIF_bm));
    103c:	e0 ea       	ldi	r30, 0xA0	; 160
    103e:	f9 e0       	ldi	r31, 0x09	; 9
    1040:	81 81       	ldd	r24, Z+1	; 0x01
    1042:	85 ff       	sbrs	r24, 5
    1044:	fd cf       	rjmp	.-6      	; 0x1040 <st7565r_init+0x210>
	ST7565R_USART_SPI.DATA = command;
    1046:	81 e2       	ldi	r24, 0x21	; 33
    1048:	80 93 a0 09 	sts	0x09A0, r24
	while(!(ST7565R_USART_SPI.STATUS & USART_TXCIF_bm));
    104c:	e0 ea       	ldi	r30, 0xA0	; 160
    104e:	f9 e0       	ldi	r31, 0x09	; 9
    1050:	81 81       	ldd	r24, Z+1	; 0x01
    1052:	86 ff       	sbrs	r24, 6
    1054:	fd cf       	rjmp	.-6      	; 0x1050 <st7565r_init+0x220>
	ST7565R_USART_SPI.STATUS |= USART_TXCIF_bm;
    1056:	e0 ea       	ldi	r30, 0xA0	; 160
    1058:	f9 e0       	ldi	r31, 0x09	; 9
    105a:	81 81       	ldd	r24, Z+1	; 0x01
    105c:	80 64       	ori	r24, 0x40	; 64
    105e:	81 83       	std	Z+1, r24	; 0x01
	temp = ST7565R_USART_SPI.DATA;
    1060:	80 81       	ld	r24, Z
    1062:	80 93 1e 23 	sts	0x231E, r24
	ST7565R_CS_PORT.OUTSET = ST7565R_CS_PIN;
    1066:	e0 ea       	ldi	r30, 0xA0	; 160
    1068:	f6 e0       	ldi	r31, 0x06	; 6
    106a:	88 e0       	ldi	r24, 0x08	; 8
    106c:	85 83       	std	Z+5, r24	; 0x05
 *
 * \param command the command to write
 */
static inline void st7565r_write_command(uint8_t command)
{
	ST7565R_CS_PORT.OUTCLR = ST7565R_CS_PIN;
    106e:	86 83       	std	Z+6, r24	; 0x06
	ST7565R_A0_PORT.OUTCLR = ST7565R_A0_PIN;
    1070:	81 e0       	ldi	r24, 0x01	; 1
    1072:	e0 e6       	ldi	r30, 0x60	; 96
    1074:	f6 e0       	ldi	r31, 0x06	; 6
    1076:	86 83       	std	Z+6, r24	; 0x06
	while(!(ST7565R_USART_SPI.STATUS & USART_DREIF_bm));
    1078:	e0 ea       	ldi	r30, 0xA0	; 160
    107a:	f9 e0       	ldi	r31, 0x09	; 9
    107c:	81 81       	ldd	r24, Z+1	; 0x01
    107e:	85 ff       	sbrs	r24, 5
    1080:	fd cf       	rjmp	.-6      	; 0x107c <st7565r_init+0x24c>
	ST7565R_USART_SPI.DATA = command;
    1082:	81 e8       	ldi	r24, 0x81	; 129
    1084:	80 93 a0 09 	sts	0x09A0, r24
	while(!(ST7565R_USART_SPI.STATUS & USART_TXCIF_bm));
    1088:	e0 ea       	ldi	r30, 0xA0	; 160
    108a:	f9 e0       	ldi	r31, 0x09	; 9
    108c:	81 81       	ldd	r24, Z+1	; 0x01
    108e:	86 ff       	sbrs	r24, 6
    1090:	fd cf       	rjmp	.-6      	; 0x108c <st7565r_init+0x25c>
	ST7565R_USART_SPI.STATUS |= USART_TXCIF_bm;
    1092:	e0 ea       	ldi	r30, 0xA0	; 160
    1094:	f9 e0       	ldi	r31, 0x09	; 9
    1096:	81 81       	ldd	r24, Z+1	; 0x01
    1098:	80 64       	ori	r24, 0x40	; 64
    109a:	81 83       	std	Z+1, r24	; 0x01
	temp = ST7565R_USART_SPI.DATA;
    109c:	80 81       	ld	r24, Z
    109e:	80 93 1e 23 	sts	0x231E, r24
	ST7565R_CS_PORT.OUTSET = ST7565R_CS_PIN;
    10a2:	e0 ea       	ldi	r30, 0xA0	; 160
    10a4:	f6 e0       	ldi	r31, 0x06	; 6
    10a6:	88 e0       	ldi	r24, 0x08	; 8
    10a8:	85 83       	std	Z+5, r24	; 0x05
 *
 * \param command the command to write
 */
static inline void st7565r_write_command(uint8_t command)
{
	ST7565R_CS_PORT.OUTCLR = ST7565R_CS_PIN;
    10aa:	86 83       	std	Z+6, r24	; 0x06
	ST7565R_A0_PORT.OUTCLR = ST7565R_A0_PIN;
    10ac:	81 e0       	ldi	r24, 0x01	; 1
    10ae:	e0 e6       	ldi	r30, 0x60	; 96
    10b0:	f6 e0       	ldi	r31, 0x06	; 6
    10b2:	86 83       	std	Z+6, r24	; 0x06
	while(!(ST7565R_USART_SPI.STATUS & USART_DREIF_bm));
    10b4:	e0 ea       	ldi	r30, 0xA0	; 160
    10b6:	f9 e0       	ldi	r31, 0x09	; 9
    10b8:	81 81       	ldd	r24, Z+1	; 0x01
    10ba:	85 ff       	sbrs	r24, 5
    10bc:	fd cf       	rjmp	.-6      	; 0x10b8 <st7565r_init+0x288>
	ST7565R_USART_SPI.DATA = command;
    10be:	81 e2       	ldi	r24, 0x21	; 33
    10c0:	80 93 a0 09 	sts	0x09A0, r24
	while(!(ST7565R_USART_SPI.STATUS & USART_TXCIF_bm));
    10c4:	e0 ea       	ldi	r30, 0xA0	; 160
    10c6:	f9 e0       	ldi	r31, 0x09	; 9
    10c8:	81 81       	ldd	r24, Z+1	; 0x01
    10ca:	86 ff       	sbrs	r24, 6
    10cc:	fd cf       	rjmp	.-6      	; 0x10c8 <st7565r_init+0x298>
	ST7565R_USART_SPI.STATUS |= USART_TXCIF_bm;
    10ce:	e0 ea       	ldi	r30, 0xA0	; 160
    10d0:	f9 e0       	ldi	r31, 0x09	; 9
    10d2:	81 81       	ldd	r24, Z+1	; 0x01
    10d4:	80 64       	ori	r24, 0x40	; 64
    10d6:	81 83       	std	Z+1, r24	; 0x01
	temp = ST7565R_USART_SPI.DATA;
    10d8:	80 81       	ld	r24, Z
    10da:	80 93 1e 23 	sts	0x231E, r24
	ST7565R_CS_PORT.OUTSET = ST7565R_CS_PIN;
    10de:	e0 ea       	ldi	r30, 0xA0	; 160
    10e0:	f6 e0       	ldi	r31, 0x06	; 6
    10e2:	88 e0       	ldi	r24, 0x08	; 8
    10e4:	85 83       	std	Z+5, r24	; 0x05
 *
 * \param command the command to write
 */
static inline void st7565r_write_command(uint8_t command)
{
	ST7565R_CS_PORT.OUTCLR = ST7565R_CS_PIN;
    10e6:	86 83       	std	Z+6, r24	; 0x06
	ST7565R_A0_PORT.OUTCLR = ST7565R_A0_PIN;
    10e8:	81 e0       	ldi	r24, 0x01	; 1
    10ea:	e0 e6       	ldi	r30, 0x60	; 96
    10ec:	f6 e0       	ldi	r31, 0x06	; 6
    10ee:	86 83       	std	Z+6, r24	; 0x06
	while(!(ST7565R_USART_SPI.STATUS & USART_DREIF_bm));
    10f0:	e0 ea       	ldi	r30, 0xA0	; 160
    10f2:	f9 e0       	ldi	r31, 0x09	; 9
    10f4:	81 81       	ldd	r24, Z+1	; 0x01
    10f6:	85 ff       	sbrs	r24, 5
    10f8:	fd cf       	rjmp	.-6      	; 0x10f4 <st7565r_init+0x2c4>
	ST7565R_USART_SPI.DATA = command;
    10fa:	8f ea       	ldi	r24, 0xAF	; 175
    10fc:	80 93 a0 09 	sts	0x09A0, r24
	while(!(ST7565R_USART_SPI.STATUS & USART_TXCIF_bm));
    1100:	e0 ea       	ldi	r30, 0xA0	; 160
    1102:	f9 e0       	ldi	r31, 0x09	; 9
    1104:	81 81       	ldd	r24, Z+1	; 0x01
    1106:	86 ff       	sbrs	r24, 6
    1108:	fd cf       	rjmp	.-6      	; 0x1104 <st7565r_init+0x2d4>
	ST7565R_USART_SPI.STATUS |= USART_TXCIF_bm;
    110a:	e0 ea       	ldi	r30, 0xA0	; 160
    110c:	f9 e0       	ldi	r31, 0x09	; 9
    110e:	81 81       	ldd	r24, Z+1	; 0x01
    1110:	80 64       	ori	r24, 0x40	; 64
    1112:	81 83       	std	Z+1, r24	; 0x01
	temp = ST7565R_USART_SPI.DATA;
    1114:	80 81       	ld	r24, Z
    1116:	80 93 1e 23 	sts	0x231E, r24
	ST7565R_CS_PORT.OUTSET = ST7565R_CS_PIN;
    111a:	88 e0       	ldi	r24, 0x08	; 8
    111c:	e0 ea       	ldi	r30, 0xA0	; 160
    111e:	f6 e0       	ldi	r31, 0x06	; 6
    1120:	85 83       	std	Z+5, r24	; 0x05
	is set to the defined min*/
	st7565r_set_contrast(ST7565R_DISPLAY_CONTRAST_MIN);

	// Turn on the display
	st7565r_display_on();
}
    1122:	df 91       	pop	r29
    1124:	cf 91       	pop	r28
    1126:	08 95       	ret

00001128 <_exit>:
    1128:	f8 94       	cli

0000112a <__stop_program>:
    112a:	ff cf       	rjmp	.-2      	; 0x112a <__stop_program>
